
i2ceeprom.elf:     file format elf32-avr

Sections:
Idx Name          Size      VMA       LMA       File off  Algn
  0 .data         000000b6  00800100  00001448  000014dc  2**0
                  CONTENTS, ALLOC, LOAD, DATA
  1 .text         00001448  00000000  00000000  00000094  2**1
                  CONTENTS, ALLOC, LOAD, READONLY, CODE
  2 .bss          00000006  008001b6  008001b6  00001592  2**0
                  ALLOC
  3 .stab         00000e1c  00000000  00000000  00001594  2**2
                  CONTENTS, READONLY, DEBUGGING
  4 .stabstr      000002ed  00000000  00000000  000023b0  2**0
                  CONTENTS, READONLY, DEBUGGING
  5 .debug_aranges 00000128  00000000  00000000  0000269d  2**0
                  CONTENTS, READONLY, DEBUGGING
  6 .debug_pubnames 00000106  00000000  00000000  000027c5  2**0
                  CONTENTS, READONLY, DEBUGGING
  7 .debug_info   000013c8  00000000  00000000  000028cb  2**0
                  CONTENTS, READONLY, DEBUGGING
  8 .debug_abbrev 000009f7  00000000  00000000  00003c93  2**0
                  CONTENTS, READONLY, DEBUGGING
  9 .debug_line   0000188b  00000000  00000000  0000468a  2**0
                  CONTENTS, READONLY, DEBUGGING
 10 .debug_frame  00000150  00000000  00000000  00005f18  2**2
                  CONTENTS, READONLY, DEBUGGING
 11 .debug_str    000004a0  00000000  00000000  00006068  2**0
                  CONTENTS, READONLY, DEBUGGING
 12 .debug_loc    00001214  00000000  00000000  00006508  2**0
                  CONTENTS, READONLY, DEBUGGING
 13 .debug_pubtypes 00000223  00000000  00000000  0000771c  2**0
                  CONTENTS, READONLY, DEBUGGING
 14 .debug_ranges 00000110  00000000  00000000  0000793f  2**0
                  CONTENTS, READONLY, DEBUGGING

Disassembly of section .text:

00000000 <__vectors>:
       0:	0c 94 cc 00 	jmp	0x198	; 0x198 <__ctors_end>
       4:	0c 94 e9 00 	jmp	0x1d2	; 0x1d2 <__bad_interrupt>
       8:	0c 94 e9 00 	jmp	0x1d2	; 0x1d2 <__bad_interrupt>
       c:	0c 94 e9 00 	jmp	0x1d2	; 0x1d2 <__bad_interrupt>
      10:	0c 94 e9 00 	jmp	0x1d2	; 0x1d2 <__bad_interrupt>
      14:	0c 94 e9 00 	jmp	0x1d2	; 0x1d2 <__bad_interrupt>
      18:	0c 94 e9 00 	jmp	0x1d2	; 0x1d2 <__bad_interrupt>
      1c:	0c 94 e9 00 	jmp	0x1d2	; 0x1d2 <__bad_interrupt>
      20:	0c 94 e9 00 	jmp	0x1d2	; 0x1d2 <__bad_interrupt>
      24:	0c 94 e9 00 	jmp	0x1d2	; 0x1d2 <__bad_interrupt>
      28:	0c 94 e9 00 	jmp	0x1d2	; 0x1d2 <__bad_interrupt>
      2c:	0c 94 e9 00 	jmp	0x1d2	; 0x1d2 <__bad_interrupt>
      30:	0c 94 e9 00 	jmp	0x1d2	; 0x1d2 <__bad_interrupt>
      34:	0c 94 e9 00 	jmp	0x1d2	; 0x1d2 <__bad_interrupt>
      38:	0c 94 e9 00 	jmp	0x1d2	; 0x1d2 <__bad_interrupt>
      3c:	0c 94 e9 00 	jmp	0x1d2	; 0x1d2 <__bad_interrupt>
      40:	0c 94 e9 00 	jmp	0x1d2	; 0x1d2 <__bad_interrupt>
      44:	0c 94 e9 00 	jmp	0x1d2	; 0x1d2 <__bad_interrupt>
      48:	0c 94 e9 00 	jmp	0x1d2	; 0x1d2 <__bad_interrupt>
      4c:	0c 94 e9 00 	jmp	0x1d2	; 0x1d2 <__bad_interrupt>
      50:	0c 94 e9 00 	jmp	0x1d2	; 0x1d2 <__bad_interrupt>
      54:	0c 94 e9 00 	jmp	0x1d2	; 0x1d2 <__bad_interrupt>
      58:	0c 94 e9 00 	jmp	0x1d2	; 0x1d2 <__bad_interrupt>
      5c:	0c 94 e9 00 	jmp	0x1d2	; 0x1d2 <__bad_interrupt>
      60:	0c 94 e9 00 	jmp	0x1d2	; 0x1d2 <__bad_interrupt>
      64:	0c 94 e9 00 	jmp	0x1d2	; 0x1d2 <__bad_interrupt>

00000068 <__c.1665>:
      68:	0a 53 74 61 74 75 73 20 66 61 69 6c 21 00           .Status fail!.

00000076 <__c.1663>:
      76:	0a 46 61 69 6c 21 00                                .Fail!.

0000007d <__c.1661>:
      7d:	0a 53 75 63 63 65 73 73 21 00                       .Success!.

00000087 <__c.1659>:
      87:	0a 54 65 73 74 69 6e 67 2e 2e 2e 00                 .Testing....

00000093 <__c.1657>:
      93:	0a 57 72 69 74 69 6e 67 2e 2e 2e 00                 .Writing....

0000009f <__c.1655>:
      9f:	0a 43 6f 6e 74 69 6e 75 65 20 74 65 73 74 69 6e     .Continue testin
      af:	67 20 45 45 50 52 4f 4d 20 66 72 6f 6d 20 74 65     g EEPROM from te
      bf:	72 6d 69 6e 61 6c 21 00                             rminal!.

000000c7 <__c.1653>:
      c7:	0a 53 74 61 74 75 73 20 66 61 69 6c 21 00           .Status fail!.

000000d5 <__c.1651>:
      d5:	0a 53 74 61 74 75 73 20 66 61 69 6c 21 00           .Status fail!.

000000e3 <__c.1649>:
      e3:	0a 50 61 67 65 20 77 72 69 74 65 20 61 6e 64 20     .Page write and 
      f3:	72 65 61 64 20 66 61 69 6c 21 00                    read fail!.

000000fe <__c.1647>:
      fe:	0a 50 61 67 65 20 77 72 69 74 65 20 61 6e 64 20     .Page write and 
     10e:	72 65 61 64 20 73 75 63 63 65 73 73 21 00           read success!.

0000011c <__c.1641>:
     11c:	0a 52 65 61 64 69 6e 67 20 31 36 20 62 79 74 65     .Reading 16 byte
     12c:	73 20 66 72 6f 6d 20 70 61 67 65 20 35 20 00        s from page 5 .

0000013b <__c.1639>:
     13b:	0a 57 72 69 74 69 6e 67 20 31 36 20 62 79 74 65     .Writing 16 byte
     14b:	73 20 74 6f 20 70 61 67 65 20 35 20 00              s to page 5 .

00000158 <__c.1637>:
     158:	0a 53 74 61 74 75 73 20 66 61 69 6c 21 00           .Status fail!.

00000166 <__c.1635>:
     166:	0a 53 74 61 74 75 73 20 66 61 69 6c 21 00           .Status fail!.

00000174 <__c.1633>:
     174:	0a 52 65 61 64 20 62 79 74 65 20 46 72 6f 6d 20     .Read byte From 
     184:	65 65 70 72 6f 6d 00                                eeprom.

0000018b <__c.2050>:
     18b:	63 64 69 6e 6f 70 73 75 78 58 5b 00 00              cdinopsuxX[..

00000198 <__ctors_end>:
     198:	11 24       	eor	r1, r1
     19a:	1f be       	out	0x3f, r1	; 63
     19c:	cf ef       	ldi	r28, 0xFF	; 255
     19e:	d8 e0       	ldi	r29, 0x08	; 8
     1a0:	de bf       	out	0x3e, r29	; 62
     1a2:	cd bf       	out	0x3d, r28	; 61

000001a4 <__do_copy_data>:
     1a4:	11 e0       	ldi	r17, 0x01	; 1
     1a6:	a0 e0       	ldi	r26, 0x00	; 0
     1a8:	b1 e0       	ldi	r27, 0x01	; 1
     1aa:	e8 e4       	ldi	r30, 0x48	; 72
     1ac:	f4 e1       	ldi	r31, 0x14	; 20
     1ae:	02 c0       	rjmp	.+4      	; 0x1b4 <__do_copy_data+0x10>
     1b0:	05 90       	lpm	r0, Z+
     1b2:	0d 92       	st	X+, r0
     1b4:	a6 3b       	cpi	r26, 0xB6	; 182
     1b6:	b1 07       	cpc	r27, r17
     1b8:	d9 f7       	brne	.-10     	; 0x1b0 <__do_copy_data+0xc>

000001ba <__do_clear_bss>:
     1ba:	11 e0       	ldi	r17, 0x01	; 1
     1bc:	a6 eb       	ldi	r26, 0xB6	; 182
     1be:	b1 e0       	ldi	r27, 0x01	; 1
     1c0:	01 c0       	rjmp	.+2      	; 0x1c4 <.do_clear_bss_start>

000001c2 <.do_clear_bss_loop>:
     1c2:	1d 92       	st	X+, r1

000001c4 <.do_clear_bss_start>:
     1c4:	ac 3b       	cpi	r26, 0xBC	; 188
     1c6:	b1 07       	cpc	r27, r17
     1c8:	e1 f7       	brne	.-8      	; 0x1c2 <.do_clear_bss_loop>
     1ca:	0e 94 ef 01 	call	0x3de	; 0x3de <main>
     1ce:	0c 94 22 0a 	jmp	0x1444	; 0x1444 <_exit>

000001d2 <__bad_interrupt>:
     1d2:	0c 94 00 00 	jmp	0	; 0x0 <__vectors>

000001d6 <EEWriteByte>:
     1d6:	1f 93       	push	r17
     1d8:	cf 93       	push	r28
     1da:	df 93       	push	r29
     1dc:	ec 01       	movw	r28, r24
     1de:	16 2f       	mov	r17, r22
     1e0:	0e 94 88 03 	call	0x710	; 0x710 <TWIStart>
     1e4:	0e 94 b2 03 	call	0x764	; 0x764 <TWIGetStatus>
     1e8:	88 30       	cpi	r24, 0x08	; 8
     1ea:	11 f5       	brne	.+68     	; 0x230 <EEWriteByte+0x5a>
     1ec:	9e 01       	movw	r18, r28
     1ee:	20 70       	andi	r18, 0x00	; 0
     1f0:	37 70       	andi	r19, 0x07	; 7
     1f2:	22 0f       	add	r18, r18
     1f4:	23 2f       	mov	r18, r19
     1f6:	22 1f       	adc	r18, r18
     1f8:	33 0b       	sbc	r19, r19
     1fa:	31 95       	neg	r19
     1fc:	82 2f       	mov	r24, r18
     1fe:	80 6a       	ori	r24, 0xA0	; 160
     200:	0e 94 94 03 	call	0x728	; 0x728 <TWIWrite>
     204:	0e 94 b2 03 	call	0x764	; 0x764 <TWIGetStatus>
     208:	88 31       	cpi	r24, 0x18	; 24
     20a:	91 f4       	brne	.+36     	; 0x230 <EEWriteByte+0x5a>
     20c:	8c 2f       	mov	r24, r28
     20e:	0e 94 94 03 	call	0x728	; 0x728 <TWIWrite>
     212:	0e 94 b2 03 	call	0x764	; 0x764 <TWIGetStatus>
     216:	88 32       	cpi	r24, 0x28	; 40
     218:	59 f4       	brne	.+22     	; 0x230 <EEWriteByte+0x5a>
     21a:	81 2f       	mov	r24, r17
     21c:	0e 94 94 03 	call	0x728	; 0x728 <TWIWrite>
     220:	0e 94 b2 03 	call	0x764	; 0x764 <TWIGetStatus>
     224:	88 32       	cpi	r24, 0x28	; 40
     226:	21 f4       	brne	.+8      	; 0x230 <EEWriteByte+0x5a>
     228:	0e 94 90 03 	call	0x720	; 0x720 <TWIStop>
     22c:	80 e0       	ldi	r24, 0x00	; 0
     22e:	01 c0       	rjmp	.+2      	; 0x232 <EEWriteByte+0x5c>
     230:	81 e0       	ldi	r24, 0x01	; 1
     232:	df 91       	pop	r29
     234:	cf 91       	pop	r28
     236:	1f 91       	pop	r17
     238:	08 95       	ret

0000023a <EEWritePage>:
     23a:	1f 93       	push	r17
     23c:	cf 93       	push	r28
     23e:	df 93       	push	r29
     240:	18 2f       	mov	r17, r24
     242:	eb 01       	movw	r28, r22
     244:	0e 94 88 03 	call	0x710	; 0x710 <TWIStart>
     248:	0e 94 b2 03 	call	0x764	; 0x764 <TWIGetStatus>
     24c:	88 30       	cpi	r24, 0x08	; 8
     24e:	11 f5       	brne	.+68     	; 0x294 <EEWritePage+0x5a>
     250:	81 2f       	mov	r24, r17
     252:	82 95       	swap	r24
     254:	80 7f       	andi	r24, 0xF0	; 240
     256:	86 95       	lsr	r24
     258:	86 95       	lsr	r24
     25a:	86 95       	lsr	r24
     25c:	80 6a       	ori	r24, 0xA0	; 160
     25e:	0e 94 94 03 	call	0x728	; 0x728 <TWIWrite>
     262:	0e 94 b2 03 	call	0x764	; 0x764 <TWIGetStatus>
     266:	88 31       	cpi	r24, 0x18	; 24
     268:	a9 f4       	brne	.+42     	; 0x294 <EEWritePage+0x5a>
     26a:	80 e0       	ldi	r24, 0x00	; 0
     26c:	0e 94 94 03 	call	0x728	; 0x728 <TWIWrite>
     270:	0e 94 b2 03 	call	0x764	; 0x764 <TWIGetStatus>
     274:	88 32       	cpi	r24, 0x28	; 40
     276:	71 f4       	brne	.+28     	; 0x294 <EEWritePage+0x5a>
     278:	10 e1       	ldi	r17, 0x10	; 16
     27a:	89 91       	ld	r24, Y+
     27c:	0e 94 94 03 	call	0x728	; 0x728 <TWIWrite>
     280:	0e 94 b2 03 	call	0x764	; 0x764 <TWIGetStatus>
     284:	88 32       	cpi	r24, 0x28	; 40
     286:	31 f4       	brne	.+12     	; 0x294 <EEWritePage+0x5a>
     288:	11 50       	subi	r17, 0x01	; 1
     28a:	b9 f7       	brne	.-18     	; 0x27a <EEWritePage+0x40>
     28c:	0e 94 90 03 	call	0x720	; 0x720 <TWIStop>
     290:	80 e0       	ldi	r24, 0x00	; 0
     292:	01 c0       	rjmp	.+2      	; 0x296 <EEWritePage+0x5c>
     294:	81 e0       	ldi	r24, 0x01	; 1
     296:	df 91       	pop	r29
     298:	cf 91       	pop	r28
     29a:	1f 91       	pop	r17
     29c:	08 95       	ret

0000029e <EEReadByte>:
     29e:	ef 92       	push	r14
     2a0:	ff 92       	push	r15
     2a2:	0f 93       	push	r16
     2a4:	1f 93       	push	r17
     2a6:	df 93       	push	r29
     2a8:	cf 93       	push	r28
     2aa:	0f 92       	push	r0
     2ac:	cd b7       	in	r28, 0x3d	; 61
     2ae:	de b7       	in	r29, 0x3e	; 62
     2b0:	7c 01       	movw	r14, r24
     2b2:	8b 01       	movw	r16, r22
     2b4:	0e 94 88 03 	call	0x710	; 0x710 <TWIStart>
     2b8:	0e 94 b2 03 	call	0x764	; 0x764 <TWIGetStatus>
     2bc:	88 30       	cpi	r24, 0x08	; 8
     2be:	91 f5       	brne	.+100    	; 0x324 <EEReadByte+0x86>
     2c0:	c7 01       	movw	r24, r14
     2c2:	88 0f       	add	r24, r24
     2c4:	89 2f       	mov	r24, r25
     2c6:	88 1f       	adc	r24, r24
     2c8:	99 0b       	sbc	r25, r25
     2ca:	91 95       	neg	r25
     2cc:	28 2f       	mov	r18, r24
     2ce:	2e 70       	andi	r18, 0x0E	; 14
     2d0:	29 83       	std	Y+1, r18	; 0x01
     2d2:	82 2f       	mov	r24, r18
     2d4:	80 6a       	ori	r24, 0xA0	; 160
     2d6:	0e 94 94 03 	call	0x728	; 0x728 <TWIWrite>
     2da:	0e 94 b2 03 	call	0x764	; 0x764 <TWIGetStatus>
     2de:	88 31       	cpi	r24, 0x18	; 24
     2e0:	09 f5       	brne	.+66     	; 0x324 <EEReadByte+0x86>
     2e2:	8e 2d       	mov	r24, r14
     2e4:	0e 94 94 03 	call	0x728	; 0x728 <TWIWrite>
     2e8:	0e 94 b2 03 	call	0x764	; 0x764 <TWIGetStatus>
     2ec:	88 32       	cpi	r24, 0x28	; 40
     2ee:	d1 f4       	brne	.+52     	; 0x324 <EEReadByte+0x86>
     2f0:	0e 94 88 03 	call	0x710	; 0x710 <TWIStart>
     2f4:	0e 94 b2 03 	call	0x764	; 0x764 <TWIGetStatus>
     2f8:	80 31       	cpi	r24, 0x10	; 16
     2fa:	a1 f4       	brne	.+40     	; 0x324 <EEReadByte+0x86>
     2fc:	89 81       	ldd	r24, Y+1	; 0x01
     2fe:	81 6a       	ori	r24, 0xA1	; 161
     300:	0e 94 94 03 	call	0x728	; 0x728 <TWIWrite>
     304:	0e 94 b2 03 	call	0x764	; 0x764 <TWIGetStatus>
     308:	80 34       	cpi	r24, 0x40	; 64
     30a:	61 f4       	brne	.+24     	; 0x324 <EEReadByte+0x86>
     30c:	0e 94 a8 03 	call	0x750	; 0x750 <TWIReadNACK>
     310:	f8 01       	movw	r30, r16
     312:	80 83       	st	Z, r24
     314:	0e 94 b2 03 	call	0x764	; 0x764 <TWIGetStatus>
     318:	88 35       	cpi	r24, 0x58	; 88
     31a:	21 f4       	brne	.+8      	; 0x324 <EEReadByte+0x86>
     31c:	0e 94 90 03 	call	0x720	; 0x720 <TWIStop>
     320:	80 e0       	ldi	r24, 0x00	; 0
     322:	01 c0       	rjmp	.+2      	; 0x326 <EEReadByte+0x88>
     324:	81 e0       	ldi	r24, 0x01	; 1
     326:	0f 90       	pop	r0
     328:	cf 91       	pop	r28
     32a:	df 91       	pop	r29
     32c:	1f 91       	pop	r17
     32e:	0f 91       	pop	r16
     330:	ff 90       	pop	r15
     332:	ef 90       	pop	r14
     334:	08 95       	ret

00000336 <EEReadPage>:
     336:	ef 92       	push	r14
     338:	ff 92       	push	r15
     33a:	0f 93       	push	r16
     33c:	1f 93       	push	r17
     33e:	cf 93       	push	r28
     340:	df 93       	push	r29
     342:	18 2f       	mov	r17, r24
     344:	06 2f       	mov	r16, r22
     346:	f7 2e       	mov	r15, r23
     348:	0e 94 88 03 	call	0x710	; 0x710 <TWIStart>
     34c:	0e 94 b2 03 	call	0x764	; 0x764 <TWIGetStatus>
     350:	88 30       	cpi	r24, 0x08	; 8
     352:	e9 f5       	brne	.+122    	; 0x3ce <EEReadPage+0x98>
     354:	12 95       	swap	r17
     356:	10 7f       	andi	r17, 0xF0	; 240
     358:	16 95       	lsr	r17
     35a:	16 95       	lsr	r17
     35c:	16 95       	lsr	r17
     35e:	81 2f       	mov	r24, r17
     360:	80 6a       	ori	r24, 0xA0	; 160
     362:	0e 94 94 03 	call	0x728	; 0x728 <TWIWrite>
     366:	0e 94 b2 03 	call	0x764	; 0x764 <TWIGetStatus>
     36a:	88 31       	cpi	r24, 0x18	; 24
     36c:	81 f5       	brne	.+96     	; 0x3ce <EEReadPage+0x98>
     36e:	80 e0       	ldi	r24, 0x00	; 0
     370:	0e 94 94 03 	call	0x728	; 0x728 <TWIWrite>
     374:	0e 94 b2 03 	call	0x764	; 0x764 <TWIGetStatus>
     378:	88 32       	cpi	r24, 0x28	; 40
     37a:	49 f5       	brne	.+82     	; 0x3ce <EEReadPage+0x98>
     37c:	0e 94 88 03 	call	0x710	; 0x710 <TWIStart>
     380:	0e 94 b2 03 	call	0x764	; 0x764 <TWIGetStatus>
     384:	80 31       	cpi	r24, 0x10	; 16
     386:	19 f5       	brne	.+70     	; 0x3ce <EEReadPage+0x98>
     388:	81 2f       	mov	r24, r17
     38a:	81 6a       	ori	r24, 0xA1	; 161
     38c:	0e 94 94 03 	call	0x728	; 0x728 <TWIWrite>
     390:	0e 94 b2 03 	call	0x764	; 0x764 <TWIGetStatus>
     394:	80 34       	cpi	r24, 0x40	; 64
     396:	d9 f4       	brne	.+54     	; 0x3ce <EEReadPage+0x98>
     398:	8f 2d       	mov	r24, r15
     39a:	e0 2e       	mov	r14, r16
     39c:	e7 01       	movw	r28, r14
     39e:	7e 01       	movw	r14, r28
     3a0:	f8 2e       	mov	r15, r24
     3a2:	e7 01       	movw	r28, r14
     3a4:	1f e0       	ldi	r17, 0x0F	; 15
     3a6:	0e 94 9e 03 	call	0x73c	; 0x73c <TWIReadACK>
     3aa:	89 93       	st	Y+, r24
     3ac:	0e 94 b2 03 	call	0x764	; 0x764 <TWIGetStatus>
     3b0:	80 35       	cpi	r24, 0x50	; 80
     3b2:	69 f4       	brne	.+26     	; 0x3ce <EEReadPage+0x98>
     3b4:	11 50       	subi	r17, 0x01	; 1
     3b6:	b9 f7       	brne	.-18     	; 0x3a6 <EEReadPage+0x70>
     3b8:	0e 94 a8 03 	call	0x750	; 0x750 <TWIReadNACK>
     3bc:	88 83       	st	Y, r24
     3be:	0e 94 b2 03 	call	0x764	; 0x764 <TWIGetStatus>
     3c2:	88 35       	cpi	r24, 0x58	; 88
     3c4:	21 f4       	brne	.+8      	; 0x3ce <EEReadPage+0x98>
     3c6:	0e 94 90 03 	call	0x720	; 0x720 <TWIStop>
     3ca:	80 e0       	ldi	r24, 0x00	; 0
     3cc:	01 c0       	rjmp	.+2      	; 0x3d0 <EEReadPage+0x9a>
     3ce:	81 e0       	ldi	r24, 0x01	; 1
     3d0:	df 91       	pop	r29
     3d2:	cf 91       	pop	r28
     3d4:	1f 91       	pop	r17
     3d6:	0f 91       	pop	r16
     3d8:	ff 90       	pop	r15
     3da:	ef 90       	pop	r14
     3dc:	08 95       	ret

000003de <main>:
     3de:	2f 92       	push	r2
     3e0:	3f 92       	push	r3
     3e2:	4f 92       	push	r4
     3e4:	5f 92       	push	r5
     3e6:	6f 92       	push	r6
     3e8:	7f 92       	push	r7
     3ea:	8f 92       	push	r8
     3ec:	9f 92       	push	r9
     3ee:	af 92       	push	r10
     3f0:	bf 92       	push	r11
     3f2:	cf 92       	push	r12
     3f4:	df 92       	push	r13
     3f6:	ef 92       	push	r14
     3f8:	ff 92       	push	r15
     3fa:	0f 93       	push	r16
     3fc:	1f 93       	push	r17
     3fe:	df 93       	push	r29
     400:	cf 93       	push	r28
     402:	cd b7       	in	r28, 0x3d	; 61
     404:	de b7       	in	r29, 0x3e	; 62
     406:	a4 97       	sbiw	r28, 0x24	; 36
     408:	0f b6       	in	r0, 0x3f	; 63
     40a:	f8 94       	cli
     40c:	de bf       	out	0x3e, r29	; 62
     40e:	0f be       	out	0x3f, r0	; 63
     410:	cd bf       	out	0x3d, r28	; 61
     412:	80 ef       	ldi	r24, 0xF0	; 240
     414:	97 e0       	ldi	r25, 0x07	; 7
     416:	9c 83       	std	Y+4, r25	; 0x04
     418:	8b 83       	std	Y+3, r24	; 0x03
     41a:	de 01       	movw	r26, r28
     41c:	55 96       	adiw	r26, 0x15	; 21
     41e:	e5 ea       	ldi	r30, 0xA5	; 165
     420:	f1 e0       	ldi	r31, 0x01	; 1
     422:	80 e1       	ldi	r24, 0x10	; 16
     424:	01 90       	ld	r0, Z+
     426:	0d 92       	st	X+, r0
     428:	81 50       	subi	r24, 0x01	; 1
     42a:	e1 f7       	brne	.-8      	; 0x424 <main+0x46>
     42c:	0e 94 b6 03 	call	0x76c	; 0x76c <USART0Init>
     430:	0e 94 7f 03 	call	0x6fe	; 0x6fe <TWIInit>
     434:	87 e9       	ldi	r24, 0x97	; 151
     436:	91 e0       	ldi	r25, 0x01	; 1
     438:	90 93 b9 01 	sts	0x01B9, r25
     43c:	80 93 b8 01 	sts	0x01B8, r24
     440:	90 93 b7 01 	sts	0x01B7, r25
     444:	80 93 b6 01 	sts	0x01B6, r24
     448:	00 d0       	rcall	.+0      	; 0x44a <main+0x6c>
     44a:	00 d0       	rcall	.+0      	; 0x44c <main+0x6e>
     44c:	00 d0       	rcall	.+0      	; 0x44e <main+0x70>
     44e:	ed b7       	in	r30, 0x3d	; 61
     450:	fe b7       	in	r31, 0x3e	; 62
     452:	31 96       	adiw	r30, 0x01	; 1
     454:	80 e0       	ldi	r24, 0x00	; 0
     456:	91 e0       	ldi	r25, 0x01	; 1
     458:	ad b7       	in	r26, 0x3d	; 61
     45a:	be b7       	in	r27, 0x3e	; 62
     45c:	12 96       	adiw	r26, 0x02	; 2
     45e:	9c 93       	st	X, r25
     460:	8e 93       	st	-X, r24
     462:	11 97       	sbiw	r26, 0x01	; 1
     464:	88 e5       	ldi	r24, 0x58	; 88
     466:	90 e0       	ldi	r25, 0x00	; 0
     468:	93 83       	std	Z+3, r25	; 0x03
     46a:	82 83       	std	Z+2, r24	; 0x02
     46c:	8b 81       	ldd	r24, Y+3	; 0x03
     46e:	9c 81       	ldd	r25, Y+4	; 0x04
     470:	95 83       	std	Z+5, r25	; 0x05
     472:	84 83       	std	Z+4, r24	; 0x04
     474:	0e 94 e8 03 	call	0x7d0	; 0x7d0 <printf>
     478:	ed b7       	in	r30, 0x3d	; 61
     47a:	fe b7       	in	r31, 0x3e	; 62
     47c:	36 96       	adiw	r30, 0x06	; 6
     47e:	0f b6       	in	r0, 0x3f	; 63
     480:	f8 94       	cli
     482:	fe bf       	out	0x3e, r31	; 62
     484:	0f be       	out	0x3f, r0	; 63
     486:	ed bf       	out	0x3d, r30	; 61
     488:	8b 81       	ldd	r24, Y+3	; 0x03
     48a:	9c 81       	ldd	r25, Y+4	; 0x04
     48c:	68 e5       	ldi	r22, 0x58	; 88
     48e:	0e 94 eb 00 	call	0x1d6	; 0x1d6 <EEWriteByte>
     492:	81 30       	cpi	r24, 0x01	; 1
     494:	09 f4       	brne	.+2      	; 0x498 <main+0xba>
     496:	40 c0       	rjmp	.+128    	; 0x518 <main+0x13a>
     498:	00 d0       	rcall	.+0      	; 0x49a <main+0xbc>
     49a:	84 e7       	ldi	r24, 0x74	; 116
     49c:	91 e0       	ldi	r25, 0x01	; 1
     49e:	ad b7       	in	r26, 0x3d	; 61
     4a0:	be b7       	in	r27, 0x3e	; 62
     4a2:	12 96       	adiw	r26, 0x02	; 2
     4a4:	9c 93       	st	X, r25
     4a6:	8e 93       	st	-X, r24
     4a8:	11 97       	sbiw	r26, 0x01	; 1
     4aa:	0e 94 fd 03 	call	0x7fa	; 0x7fa <printf_P>
     4ae:	0f 90       	pop	r0
     4b0:	0f 90       	pop	r0
     4b2:	8b 81       	ldd	r24, Y+3	; 0x03
     4b4:	9c 81       	ldd	r25, Y+4	; 0x04
     4b6:	be 01       	movw	r22, r28
     4b8:	6f 5f       	subi	r22, 0xFF	; 255
     4ba:	7f 4f       	sbci	r23, 0xFF	; 255
     4bc:	0e 94 4f 01 	call	0x29e	; 0x29e <EEReadByte>
     4c0:	81 30       	cpi	r24, 0x01	; 1
     4c2:	01 f1       	breq	.+64     	; 0x504 <main+0x126>
     4c4:	00 d0       	rcall	.+0      	; 0x4c6 <main+0xe8>
     4c6:	00 d0       	rcall	.+0      	; 0x4c8 <main+0xea>
     4c8:	00 d0       	rcall	.+0      	; 0x4ca <main+0xec>
     4ca:	ed b7       	in	r30, 0x3d	; 61
     4cc:	fe b7       	in	r31, 0x3e	; 62
     4ce:	31 96       	adiw	r30, 0x01	; 1
     4d0:	8a e2       	ldi	r24, 0x2A	; 42
     4d2:	91 e0       	ldi	r25, 0x01	; 1
     4d4:	ad b7       	in	r26, 0x3d	; 61
     4d6:	be b7       	in	r27, 0x3e	; 62
     4d8:	12 96       	adiw	r26, 0x02	; 2
     4da:	9c 93       	st	X, r25
     4dc:	8e 93       	st	-X, r24
     4de:	11 97       	sbiw	r26, 0x01	; 1
     4e0:	8b 81       	ldd	r24, Y+3	; 0x03
     4e2:	9c 81       	ldd	r25, Y+4	; 0x04
     4e4:	93 83       	std	Z+3, r25	; 0x03
     4e6:	82 83       	std	Z+2, r24	; 0x02
     4e8:	89 81       	ldd	r24, Y+1	; 0x01
     4ea:	84 83       	std	Z+4, r24	; 0x04
     4ec:	15 82       	std	Z+5, r1	; 0x05
     4ee:	0e 94 e8 03 	call	0x7d0	; 0x7d0 <printf>
     4f2:	ed b7       	in	r30, 0x3d	; 61
     4f4:	fe b7       	in	r31, 0x3e	; 62
     4f6:	36 96       	adiw	r30, 0x06	; 6
     4f8:	0f b6       	in	r0, 0x3f	; 63
     4fa:	f8 94       	cli
     4fc:	fe bf       	out	0x3e, r31	; 62
     4fe:	0f be       	out	0x3f, r0	; 63
     500:	ed bf       	out	0x3d, r30	; 61
     502:	15 c0       	rjmp	.+42     	; 0x52e <main+0x150>
     504:	00 d0       	rcall	.+0      	; 0x506 <main+0x128>
     506:	86 e6       	ldi	r24, 0x66	; 102
     508:	91 e0       	ldi	r25, 0x01	; 1
     50a:	ad b7       	in	r26, 0x3d	; 61
     50c:	be b7       	in	r27, 0x3e	; 62
     50e:	12 96       	adiw	r26, 0x02	; 2
     510:	9c 93       	st	X, r25
     512:	8e 93       	st	-X, r24
     514:	11 97       	sbiw	r26, 0x01	; 1
     516:	07 c0       	rjmp	.+14     	; 0x526 <main+0x148>
     518:	00 d0       	rcall	.+0      	; 0x51a <main+0x13c>
     51a:	88 e5       	ldi	r24, 0x58	; 88
     51c:	91 e0       	ldi	r25, 0x01	; 1
     51e:	ed b7       	in	r30, 0x3d	; 61
     520:	fe b7       	in	r31, 0x3e	; 62
     522:	92 83       	std	Z+2, r25	; 0x02
     524:	81 83       	std	Z+1, r24	; 0x01
     526:	0e 94 fd 03 	call	0x7fa	; 0x7fa <printf_P>
     52a:	0f 90       	pop	r0
     52c:	0f 90       	pop	r0
     52e:	00 d0       	rcall	.+0      	; 0x530 <main+0x152>
     530:	8b e3       	ldi	r24, 0x3B	; 59
     532:	91 e0       	ldi	r25, 0x01	; 1
     534:	ad b7       	in	r26, 0x3d	; 61
     536:	be b7       	in	r27, 0x3e	; 62
     538:	12 96       	adiw	r26, 0x02	; 2
     53a:	9c 93       	st	X, r25
     53c:	8e 93       	st	-X, r24
     53e:	11 97       	sbiw	r26, 0x01	; 1
     540:	0e 94 fd 03 	call	0x7fa	; 0x7fa <printf_P>
     544:	0f 90       	pop	r0
     546:	0f 90       	pop	r0
     548:	65 e1       	ldi	r22, 0x15	; 21
     54a:	e6 2e       	mov	r14, r22
     54c:	f1 2c       	mov	r15, r1
     54e:	ec 0e       	add	r14, r28
     550:	fd 1e       	adc	r15, r29
     552:	85 e0       	ldi	r24, 0x05	; 5
     554:	b7 01       	movw	r22, r14
     556:	0e 94 1d 01 	call	0x23a	; 0x23a <EEWritePage>
     55a:	81 30       	cpi	r24, 0x01	; 1
     55c:	81 f1       	breq	.+96     	; 0x5be <main+0x1e0>
     55e:	00 d0       	rcall	.+0      	; 0x560 <main+0x182>
     560:	8c e1       	ldi	r24, 0x1C	; 28
     562:	91 e0       	ldi	r25, 0x01	; 1
     564:	ed b7       	in	r30, 0x3d	; 61
     566:	fe b7       	in	r31, 0x3e	; 62
     568:	92 83       	std	Z+2, r25	; 0x02
     56a:	81 83       	std	Z+1, r24	; 0x01
     56c:	0e 94 fd 03 	call	0x7fa	; 0x7fa <printf_P>
     570:	0f 90       	pop	r0
     572:	0f 90       	pop	r0
     574:	8e 01       	movw	r16, r28
     576:	0b 5f       	subi	r16, 0xFB	; 251
     578:	1f 4f       	sbci	r17, 0xFF	; 255
     57a:	85 e0       	ldi	r24, 0x05	; 5
     57c:	b8 01       	movw	r22, r16
     57e:	0e 94 9b 01 	call	0x336	; 0x336 <EEReadPage>
     582:	81 30       	cpi	r24, 0x01	; 1
     584:	91 f0       	breq	.+36     	; 0x5aa <main+0x1cc>
     586:	d8 01       	movw	r26, r16
     588:	f7 01       	movw	r30, r14
     58a:	80 e0       	ldi	r24, 0x00	; 0
     58c:	2d 91       	ld	r18, X+
     58e:	91 91       	ld	r25, Z+
     590:	29 17       	cp	r18, r25
     592:	39 f4       	brne	.+14     	; 0x5a2 <main+0x1c4>
     594:	8f 5f       	subi	r24, 0xFF	; 255
     596:	80 31       	cpi	r24, 0x10	; 16
     598:	c9 f7       	brne	.-14     	; 0x58c <main+0x1ae>
     59a:	00 d0       	rcall	.+0      	; 0x59c <main+0x1be>
     59c:	8e ef       	ldi	r24, 0xFE	; 254
     59e:	90 e0       	ldi	r25, 0x00	; 0
     5a0:	07 c0       	rjmp	.+14     	; 0x5b0 <main+0x1d2>
     5a2:	00 d0       	rcall	.+0      	; 0x5a4 <main+0x1c6>
     5a4:	83 ee       	ldi	r24, 0xE3	; 227
     5a6:	90 e0       	ldi	r25, 0x00	; 0
     5a8:	0d c0       	rjmp	.+26     	; 0x5c4 <main+0x1e6>
     5aa:	00 d0       	rcall	.+0      	; 0x5ac <main+0x1ce>
     5ac:	85 ed       	ldi	r24, 0xD5	; 213
     5ae:	90 e0       	ldi	r25, 0x00	; 0
     5b0:	ad b7       	in	r26, 0x3d	; 61
     5b2:	be b7       	in	r27, 0x3e	; 62
     5b4:	12 96       	adiw	r26, 0x02	; 2
     5b6:	9c 93       	st	X, r25
     5b8:	8e 93       	st	-X, r24
     5ba:	11 97       	sbiw	r26, 0x01	; 1
     5bc:	07 c0       	rjmp	.+14     	; 0x5cc <main+0x1ee>
     5be:	00 d0       	rcall	.+0      	; 0x5c0 <main+0x1e2>
     5c0:	87 ec       	ldi	r24, 0xC7	; 199
     5c2:	90 e0       	ldi	r25, 0x00	; 0
     5c4:	ed b7       	in	r30, 0x3d	; 61
     5c6:	fe b7       	in	r31, 0x3e	; 62
     5c8:	92 83       	std	Z+2, r25	; 0x02
     5ca:	81 83       	std	Z+1, r24	; 0x01
     5cc:	0e 94 fd 03 	call	0x7fa	; 0x7fa <printf_P>
     5d0:	8f e9       	ldi	r24, 0x9F	; 159
     5d2:	90 e0       	ldi	r25, 0x00	; 0
     5d4:	ad b7       	in	r26, 0x3d	; 61
     5d6:	be b7       	in	r27, 0x3e	; 62
     5d8:	12 96       	adiw	r26, 0x02	; 2
     5da:	9c 93       	st	X, r25
     5dc:	8e 93       	st	-X, r24
     5de:	11 97       	sbiw	r26, 0x01	; 1
     5e0:	0e 94 fd 03 	call	0x7fa	; 0x7fa <printf_P>
     5e4:	0f 90       	pop	r0
     5e6:	0f 90       	pop	r0
     5e8:	5a e3       	ldi	r21, 0x3A	; 58
     5ea:	e5 2e       	mov	r14, r21
     5ec:	51 e0       	ldi	r21, 0x01	; 1
     5ee:	f5 2e       	mov	r15, r21
     5f0:	c1 2c       	mov	r12, r1
     5f2:	48 e0       	ldi	r20, 0x08	; 8
     5f4:	d4 2e       	mov	r13, r20
     5f6:	06 e6       	ldi	r16, 0x66	; 102
     5f8:	11 e0       	ldi	r17, 0x01	; 1
     5fa:	33 e0       	ldi	r19, 0x03	; 3
     5fc:	a3 2e       	mov	r10, r19
     5fe:	b1 2c       	mov	r11, r1
     600:	ac 0e       	add	r10, r28
     602:	bd 1e       	adc	r11, r29
     604:	29 e6       	ldi	r18, 0x69	; 105
     606:	82 2e       	mov	r8, r18
     608:	21 e0       	ldi	r18, 0x01	; 1
     60a:	92 2e       	mov	r9, r18
     60c:	3e 01       	movw	r6, r28
     60e:	08 94       	sec
     610:	61 1c       	adc	r6, r1
     612:	71 1c       	adc	r7, r1
     614:	93 e9       	ldi	r25, 0x93	; 147
     616:	49 2e       	mov	r4, r25
     618:	90 e0       	ldi	r25, 0x00	; 0
     61a:	59 2e       	mov	r5, r25
     61c:	87 e8       	ldi	r24, 0x87	; 135
     61e:	28 2e       	mov	r2, r24
     620:	80 e0       	ldi	r24, 0x00	; 0
     622:	38 2e       	mov	r3, r24
     624:	00 d0       	rcall	.+0      	; 0x626 <main+0x248>
     626:	00 d0       	rcall	.+0      	; 0x628 <main+0x24a>
     628:	ed b7       	in	r30, 0x3d	; 61
     62a:	fe b7       	in	r31, 0x3e	; 62
     62c:	f2 82       	std	Z+2, r15	; 0x02
     62e:	e1 82       	std	Z+1, r14	; 0x01
     630:	d4 82       	std	Z+4, r13	; 0x04
     632:	c3 82       	std	Z+3, r12	; 0x03
     634:	0e 94 e8 03 	call	0x7d0	; 0x7d0 <printf>
     638:	ad b7       	in	r26, 0x3d	; 61
     63a:	be b7       	in	r27, 0x3e	; 62
     63c:	12 96       	adiw	r26, 0x02	; 2
     63e:	1c 93       	st	X, r17
     640:	0e 93       	st	-X, r16
     642:	11 97       	sbiw	r26, 0x01	; 1
     644:	14 96       	adiw	r26, 0x04	; 4
     646:	bc 92       	st	X, r11
     648:	ae 92       	st	-X, r10
     64a:	13 97       	sbiw	r26, 0x03	; 3
     64c:	0e 94 20 04 	call	0x840	; 0x840 <scanf>
     650:	ed b7       	in	r30, 0x3d	; 61
     652:	fe b7       	in	r31, 0x3e	; 62
     654:	92 82       	std	Z+2, r9	; 0x02
     656:	81 82       	std	Z+1, r8	; 0x01
     658:	8b 81       	ldd	r24, Y+3	; 0x03
     65a:	9c 81       	ldd	r25, Y+4	; 0x04
     65c:	94 83       	std	Z+4, r25	; 0x04
     65e:	83 83       	std	Z+3, r24	; 0x03
     660:	0e 94 e8 03 	call	0x7d0	; 0x7d0 <printf>
     664:	ad b7       	in	r26, 0x3d	; 61
     666:	be b7       	in	r27, 0x3e	; 62
     668:	12 96       	adiw	r26, 0x02	; 2
     66a:	1c 93       	st	X, r17
     66c:	0e 93       	st	-X, r16
     66e:	11 97       	sbiw	r26, 0x01	; 1
     670:	14 96       	adiw	r26, 0x04	; 4
     672:	7c 92       	st	X, r7
     674:	6e 92       	st	-X, r6
     676:	13 97       	sbiw	r26, 0x03	; 3
     678:	0e 94 20 04 	call	0x840	; 0x840 <scanf>
     67c:	0f 90       	pop	r0
     67e:	0f 90       	pop	r0
     680:	ed b7       	in	r30, 0x3d	; 61
     682:	fe b7       	in	r31, 0x3e	; 62
     684:	52 82       	std	Z+2, r5	; 0x02
     686:	41 82       	std	Z+1, r4	; 0x01
     688:	0e 94 fd 03 	call	0x7fa	; 0x7fa <printf_P>
     68c:	0f 90       	pop	r0
     68e:	0f 90       	pop	r0
     690:	8b 81       	ldd	r24, Y+3	; 0x03
     692:	9c 81       	ldd	r25, Y+4	; 0x04
     694:	69 81       	ldd	r22, Y+1	; 0x01
     696:	0e 94 eb 00 	call	0x1d6	; 0x1d6 <EEWriteByte>
     69a:	00 d0       	rcall	.+0      	; 0x69c <main+0x2be>
     69c:	ad b7       	in	r26, 0x3d	; 61
     69e:	be b7       	in	r27, 0x3e	; 62
     6a0:	12 96       	adiw	r26, 0x02	; 2
     6a2:	3c 92       	st	X, r3
     6a4:	2e 92       	st	-X, r2
     6a6:	11 97       	sbiw	r26, 0x01	; 1
     6a8:	0e 94 fd 03 	call	0x7fa	; 0x7fa <printf_P>
     6ac:	0f 90       	pop	r0
     6ae:	0f 90       	pop	r0
     6b0:	8b 81       	ldd	r24, Y+3	; 0x03
     6b2:	9c 81       	ldd	r25, Y+4	; 0x04
     6b4:	be 01       	movw	r22, r28
     6b6:	6e 5f       	subi	r22, 0xFE	; 254
     6b8:	7f 4f       	sbci	r23, 0xFF	; 255
     6ba:	0e 94 4f 01 	call	0x29e	; 0x29e <EEReadByte>
     6be:	81 30       	cpi	r24, 0x01	; 1
     6c0:	81 f0       	breq	.+32     	; 0x6e2 <main+0x304>
     6c2:	99 81       	ldd	r25, Y+1	; 0x01
     6c4:	8a 81       	ldd	r24, Y+2	; 0x02
     6c6:	98 17       	cp	r25, r24
     6c8:	41 f4       	brne	.+16     	; 0x6da <main+0x2fc>
     6ca:	00 d0       	rcall	.+0      	; 0x6cc <main+0x2ee>
     6cc:	8d e7       	ldi	r24, 0x7D	; 125
     6ce:	90 e0       	ldi	r25, 0x00	; 0
     6d0:	ed b7       	in	r30, 0x3d	; 61
     6d2:	fe b7       	in	r31, 0x3e	; 62
     6d4:	92 83       	std	Z+2, r25	; 0x02
     6d6:	81 83       	std	Z+1, r24	; 0x01
     6d8:	0d c0       	rjmp	.+26     	; 0x6f4 <main+0x316>
     6da:	00 d0       	rcall	.+0      	; 0x6dc <main+0x2fe>
     6dc:	e6 e7       	ldi	r30, 0x76	; 118
     6de:	f0 e0       	ldi	r31, 0x00	; 0
     6e0:	03 c0       	rjmp	.+6      	; 0x6e8 <main+0x30a>
     6e2:	00 d0       	rcall	.+0      	; 0x6e4 <main+0x306>
     6e4:	e8 e6       	ldi	r30, 0x68	; 104
     6e6:	f0 e0       	ldi	r31, 0x00	; 0
     6e8:	ad b7       	in	r26, 0x3d	; 61
     6ea:	be b7       	in	r27, 0x3e	; 62
     6ec:	12 96       	adiw	r26, 0x02	; 2
     6ee:	fc 93       	st	X, r31
     6f0:	ee 93       	st	-X, r30
     6f2:	11 97       	sbiw	r26, 0x01	; 1
     6f4:	0e 94 fd 03 	call	0x7fa	; 0x7fa <printf_P>
     6f8:	0f 90       	pop	r0
     6fa:	0f 90       	pop	r0
     6fc:	93 cf       	rjmp	.-218    	; 0x624 <main+0x246>

000006fe <TWIInit>:
     6fe:	10 92 b9 00 	sts	0x00B9, r1
     702:	8c e0       	ldi	r24, 0x0C	; 12
     704:	80 93 b8 00 	sts	0x00B8, r24
     708:	84 e0       	ldi	r24, 0x04	; 4
     70a:	80 93 bc 00 	sts	0x00BC, r24
     70e:	08 95       	ret

00000710 <TWIStart>:
     710:	84 ea       	ldi	r24, 0xA4	; 164
     712:	80 93 bc 00 	sts	0x00BC, r24
     716:	80 91 bc 00 	lds	r24, 0x00BC
     71a:	87 ff       	sbrs	r24, 7
     71c:	fc cf       	rjmp	.-8      	; 0x716 <TWIStart+0x6>
     71e:	08 95       	ret

00000720 <TWIStop>:
     720:	84 e9       	ldi	r24, 0x94	; 148
     722:	80 93 bc 00 	sts	0x00BC, r24
     726:	08 95       	ret

00000728 <TWIWrite>:
     728:	80 93 bb 00 	sts	0x00BB, r24
     72c:	84 e8       	ldi	r24, 0x84	; 132
     72e:	80 93 bc 00 	sts	0x00BC, r24
     732:	80 91 bc 00 	lds	r24, 0x00BC
     736:	87 ff       	sbrs	r24, 7
     738:	fc cf       	rjmp	.-8      	; 0x732 <TWIWrite+0xa>
     73a:	08 95       	ret

0000073c <TWIReadACK>:
     73c:	84 ec       	ldi	r24, 0xC4	; 196
     73e:	80 93 bc 00 	sts	0x00BC, r24
     742:	80 91 bc 00 	lds	r24, 0x00BC
     746:	87 ff       	sbrs	r24, 7
     748:	fc cf       	rjmp	.-8      	; 0x742 <TWIReadACK+0x6>
     74a:	80 91 bb 00 	lds	r24, 0x00BB
     74e:	08 95       	ret

00000750 <TWIReadNACK>:
     750:	84 e8       	ldi	r24, 0x84	; 132
     752:	80 93 bc 00 	sts	0x00BC, r24
     756:	80 91 bc 00 	lds	r24, 0x00BC
     75a:	87 ff       	sbrs	r24, 7
     75c:	fc cf       	rjmp	.-8      	; 0x756 <TWIReadNACK+0x6>
     75e:	80 91 bb 00 	lds	r24, 0x00BB
     762:	08 95       	ret

00000764 <TWIGetStatus>:
     764:	80 91 b9 00 	lds	r24, 0x00B9
     768:	88 7f       	andi	r24, 0xF8	; 248
     76a:	08 95       	ret

0000076c <USART0Init>:
     76c:	10 92 c5 00 	sts	0x00C5, r1
     770:	87 e6       	ldi	r24, 0x67	; 103
     772:	80 93 c4 00 	sts	0x00C4, r24
     776:	e2 ec       	ldi	r30, 0xC2	; 194
     778:	f0 e0       	ldi	r31, 0x00	; 0
     77a:	80 81       	ld	r24, Z
     77c:	86 60       	ori	r24, 0x06	; 6
     77e:	80 83       	st	Z, r24
     780:	e1 ec       	ldi	r30, 0xC1	; 193
     782:	f0 e0       	ldi	r31, 0x00	; 0
     784:	80 81       	ld	r24, Z
     786:	88 61       	ori	r24, 0x18	; 24
     788:	80 83       	st	Z, r24
     78a:	08 95       	ret

0000078c <USART0SendByte>:
     78c:	1f 93       	push	r17
     78e:	18 2f       	mov	r17, r24
     790:	8a 30       	cpi	r24, 0x0A	; 10
     792:	29 f4       	brne	.+10     	; 0x79e <USART0SendByte+0x12>
     794:	8d e0       	ldi	r24, 0x0D	; 13
     796:	60 e0       	ldi	r22, 0x00	; 0
     798:	70 e0       	ldi	r23, 0x00	; 0
     79a:	0e 94 c6 03 	call	0x78c	; 0x78c <USART0SendByte>
     79e:	80 91 c0 00 	lds	r24, 0x00C0
     7a2:	85 ff       	sbrs	r24, 5
     7a4:	fc cf       	rjmp	.-8      	; 0x79e <USART0SendByte+0x12>
     7a6:	10 93 c6 00 	sts	0x00C6, r17
     7aa:	80 e0       	ldi	r24, 0x00	; 0
     7ac:	90 e0       	ldi	r25, 0x00	; 0
     7ae:	1f 91       	pop	r17
     7b0:	08 95       	ret

000007b2 <USART0ReceiveByte>:
     7b2:	1f 93       	push	r17
     7b4:	bc 01       	movw	r22, r24
     7b6:	80 91 c0 00 	lds	r24, 0x00C0
     7ba:	87 ff       	sbrs	r24, 7
     7bc:	fc cf       	rjmp	.-8      	; 0x7b6 <USART0ReceiveByte+0x4>
     7be:	10 91 c6 00 	lds	r17, 0x00C6
     7c2:	81 2f       	mov	r24, r17
     7c4:	0e 94 c6 03 	call	0x78c	; 0x78c <USART0SendByte>
     7c8:	81 2f       	mov	r24, r17
     7ca:	90 e0       	ldi	r25, 0x00	; 0
     7cc:	1f 91       	pop	r17
     7ce:	08 95       	ret

000007d0 <printf>:
     7d0:	a0 e0       	ldi	r26, 0x00	; 0
     7d2:	b0 e0       	ldi	r27, 0x00	; 0
     7d4:	ee ee       	ldi	r30, 0xEE	; 238
     7d6:	f3 e0       	ldi	r31, 0x03	; 3
     7d8:	0c 94 fb 09 	jmp	0x13f6	; 0x13f6 <__prologue_saves__+0x20>
     7dc:	fe 01       	movw	r30, r28
     7de:	35 96       	adiw	r30, 0x05	; 5
     7e0:	61 91       	ld	r22, Z+
     7e2:	71 91       	ld	r23, Z+
     7e4:	80 91 b8 01 	lds	r24, 0x01B8
     7e8:	90 91 b9 01 	lds	r25, 0x01B9
     7ec:	af 01       	movw	r20, r30
     7ee:	0e 94 35 04 	call	0x86a	; 0x86a <vfprintf>
     7f2:	20 96       	adiw	r28, 0x00	; 0
     7f4:	e2 e0       	ldi	r30, 0x02	; 2
     7f6:	0c 94 17 0a 	jmp	0x142e	; 0x142e <__epilogue_restores__+0x20>

000007fa <printf_P>:
     7fa:	a0 e0       	ldi	r26, 0x00	; 0
     7fc:	b0 e0       	ldi	r27, 0x00	; 0
     7fe:	e3 e0       	ldi	r30, 0x03	; 3
     800:	f4 e0       	ldi	r31, 0x04	; 4
     802:	0c 94 fb 09 	jmp	0x13f6	; 0x13f6 <__prologue_saves__+0x20>
     806:	fe 01       	movw	r30, r28
     808:	35 96       	adiw	r30, 0x05	; 5
     80a:	61 91       	ld	r22, Z+
     80c:	71 91       	ld	r23, Z+
     80e:	80 91 b8 01 	lds	r24, 0x01B8
     812:	90 91 b9 01 	lds	r25, 0x01B9
     816:	dc 01       	movw	r26, r24
     818:	13 96       	adiw	r26, 0x03	; 3
     81a:	2c 91       	ld	r18, X
     81c:	13 97       	sbiw	r26, 0x03	; 3
     81e:	28 60       	ori	r18, 0x08	; 8
     820:	13 96       	adiw	r26, 0x03	; 3
     822:	2c 93       	st	X, r18
     824:	af 01       	movw	r20, r30
     826:	0e 94 35 04 	call	0x86a	; 0x86a <vfprintf>
     82a:	e0 91 b8 01 	lds	r30, 0x01B8
     82e:	f0 91 b9 01 	lds	r31, 0x01B9
     832:	23 81       	ldd	r18, Z+3	; 0x03
     834:	27 7f       	andi	r18, 0xF7	; 247
     836:	23 83       	std	Z+3, r18	; 0x03
     838:	20 96       	adiw	r28, 0x00	; 0
     83a:	e2 e0       	ldi	r30, 0x02	; 2
     83c:	0c 94 17 0a 	jmp	0x142e	; 0x142e <__epilogue_restores__+0x20>

00000840 <scanf>:
     840:	a0 e0       	ldi	r26, 0x00	; 0
     842:	b0 e0       	ldi	r27, 0x00	; 0
     844:	e6 e2       	ldi	r30, 0x26	; 38
     846:	f4 e0       	ldi	r31, 0x04	; 4
     848:	0c 94 fb 09 	jmp	0x13f6	; 0x13f6 <__prologue_saves__+0x20>
     84c:	fe 01       	movw	r30, r28
     84e:	35 96       	adiw	r30, 0x05	; 5
     850:	61 91       	ld	r22, Z+
     852:	71 91       	ld	r23, Z+
     854:	80 91 b6 01 	lds	r24, 0x01B6
     858:	90 91 b7 01 	lds	r25, 0x01B7
     85c:	af 01       	movw	r20, r30
     85e:	0e 94 b1 07 	call	0xf62	; 0xf62 <vfscanf>
     862:	20 96       	adiw	r28, 0x00	; 0
     864:	e2 e0       	ldi	r30, 0x02	; 2
     866:	0c 94 17 0a 	jmp	0x142e	; 0x142e <__epilogue_restores__+0x20>

0000086a <vfprintf>:
     86a:	ac e0       	ldi	r26, 0x0C	; 12
     86c:	b0 e0       	ldi	r27, 0x00	; 0
     86e:	eb e3       	ldi	r30, 0x3B	; 59
     870:	f4 e0       	ldi	r31, 0x04	; 4
     872:	0c 94 eb 09 	jmp	0x13d6	; 0x13d6 <__prologue_saves__>
     876:	6c 01       	movw	r12, r24
     878:	1b 01       	movw	r2, r22
     87a:	8a 01       	movw	r16, r20
     87c:	fc 01       	movw	r30, r24
     87e:	17 82       	std	Z+7, r1	; 0x07
     880:	16 82       	std	Z+6, r1	; 0x06
     882:	83 81       	ldd	r24, Z+3	; 0x03
     884:	81 ff       	sbrs	r24, 1
     886:	d1 c1       	rjmp	.+930    	; 0xc2a <__stack+0x32b>
     888:	2e 01       	movw	r4, r28
     88a:	08 94       	sec
     88c:	41 1c       	adc	r4, r1
     88e:	51 1c       	adc	r5, r1
     890:	f6 01       	movw	r30, r12
     892:	93 81       	ldd	r25, Z+3	; 0x03
     894:	f1 01       	movw	r30, r2
     896:	93 fd       	sbrc	r25, 3
     898:	85 91       	lpm	r24, Z+
     89a:	93 ff       	sbrs	r25, 3
     89c:	81 91       	ld	r24, Z+
     89e:	1f 01       	movw	r2, r30
     8a0:	88 23       	and	r24, r24
     8a2:	09 f4       	brne	.+2      	; 0x8a6 <vfprintf+0x3c>
     8a4:	be c1       	rjmp	.+892    	; 0xc22 <__stack+0x323>
     8a6:	85 32       	cpi	r24, 0x25	; 37
     8a8:	39 f4       	brne	.+14     	; 0x8b8 <vfprintf+0x4e>
     8aa:	93 fd       	sbrc	r25, 3
     8ac:	85 91       	lpm	r24, Z+
     8ae:	93 ff       	sbrs	r25, 3
     8b0:	81 91       	ld	r24, Z+
     8b2:	1f 01       	movw	r2, r30
     8b4:	85 32       	cpi	r24, 0x25	; 37
     8b6:	29 f4       	brne	.+10     	; 0x8c2 <vfprintf+0x58>
     8b8:	90 e0       	ldi	r25, 0x00	; 0
     8ba:	b6 01       	movw	r22, r12
     8bc:	0e 94 43 09 	call	0x1286	; 0x1286 <fputc>
     8c0:	e7 cf       	rjmp	.-50     	; 0x890 <vfprintf+0x26>
     8c2:	ee 24       	eor	r14, r14
     8c4:	ff 24       	eor	r15, r15
     8c6:	20 e0       	ldi	r18, 0x00	; 0
     8c8:	20 32       	cpi	r18, 0x20	; 32
     8ca:	b0 f4       	brcc	.+44     	; 0x8f8 <vfprintf+0x8e>
     8cc:	8b 32       	cpi	r24, 0x2B	; 43
     8ce:	69 f0       	breq	.+26     	; 0x8ea <vfprintf+0x80>
     8d0:	8c 32       	cpi	r24, 0x2C	; 44
     8d2:	28 f4       	brcc	.+10     	; 0x8de <vfprintf+0x74>
     8d4:	80 32       	cpi	r24, 0x20	; 32
     8d6:	51 f0       	breq	.+20     	; 0x8ec <vfprintf+0x82>
     8d8:	83 32       	cpi	r24, 0x23	; 35
     8da:	71 f4       	brne	.+28     	; 0x8f8 <vfprintf+0x8e>
     8dc:	0b c0       	rjmp	.+22     	; 0x8f4 <vfprintf+0x8a>
     8de:	8d 32       	cpi	r24, 0x2D	; 45
     8e0:	39 f0       	breq	.+14     	; 0x8f0 <vfprintf+0x86>
     8e2:	80 33       	cpi	r24, 0x30	; 48
     8e4:	49 f4       	brne	.+18     	; 0x8f8 <vfprintf+0x8e>
     8e6:	21 60       	ori	r18, 0x01	; 1
     8e8:	2c c0       	rjmp	.+88     	; 0x942 <__stack+0x43>
     8ea:	22 60       	ori	r18, 0x02	; 2
     8ec:	24 60       	ori	r18, 0x04	; 4
     8ee:	29 c0       	rjmp	.+82     	; 0x942 <__stack+0x43>
     8f0:	28 60       	ori	r18, 0x08	; 8
     8f2:	27 c0       	rjmp	.+78     	; 0x942 <__stack+0x43>
     8f4:	20 61       	ori	r18, 0x10	; 16
     8f6:	25 c0       	rjmp	.+74     	; 0x942 <__stack+0x43>
     8f8:	27 fd       	sbrc	r18, 7
     8fa:	2c c0       	rjmp	.+88     	; 0x954 <__stack+0x55>
     8fc:	38 2f       	mov	r19, r24
     8fe:	30 53       	subi	r19, 0x30	; 48
     900:	3a 30       	cpi	r19, 0x0A	; 10
     902:	98 f4       	brcc	.+38     	; 0x92a <__stack+0x2b>
     904:	26 ff       	sbrs	r18, 6
     906:	08 c0       	rjmp	.+16     	; 0x918 <__stack+0x19>
     908:	8e 2d       	mov	r24, r14
     90a:	88 0f       	add	r24, r24
     90c:	e8 2e       	mov	r14, r24
     90e:	ee 0c       	add	r14, r14
     910:	ee 0c       	add	r14, r14
     912:	e8 0e       	add	r14, r24
     914:	e3 0e       	add	r14, r19
     916:	15 c0       	rjmp	.+42     	; 0x942 <__stack+0x43>
     918:	8f 2d       	mov	r24, r15
     91a:	88 0f       	add	r24, r24
     91c:	f8 2e       	mov	r15, r24
     91e:	ff 0c       	add	r15, r15
     920:	ff 0c       	add	r15, r15
     922:	f8 0e       	add	r15, r24
     924:	f3 0e       	add	r15, r19
     926:	20 62       	ori	r18, 0x20	; 32
     928:	0c c0       	rjmp	.+24     	; 0x942 <__stack+0x43>
     92a:	8e 32       	cpi	r24, 0x2E	; 46
     92c:	21 f4       	brne	.+8      	; 0x936 <__stack+0x37>
     92e:	26 fd       	sbrc	r18, 6
     930:	78 c1       	rjmp	.+752    	; 0xc22 <__stack+0x323>
     932:	20 64       	ori	r18, 0x40	; 64
     934:	06 c0       	rjmp	.+12     	; 0x942 <__stack+0x43>
     936:	8c 36       	cpi	r24, 0x6C	; 108
     938:	11 f4       	brne	.+4      	; 0x93e <__stack+0x3f>
     93a:	20 68       	ori	r18, 0x80	; 128
     93c:	02 c0       	rjmp	.+4      	; 0x942 <__stack+0x43>
     93e:	88 36       	cpi	r24, 0x68	; 104
     940:	49 f4       	brne	.+18     	; 0x954 <__stack+0x55>
     942:	f1 01       	movw	r30, r2
     944:	93 fd       	sbrc	r25, 3
     946:	85 91       	lpm	r24, Z+
     948:	93 ff       	sbrs	r25, 3
     94a:	81 91       	ld	r24, Z+
     94c:	1f 01       	movw	r2, r30
     94e:	88 23       	and	r24, r24
     950:	09 f0       	breq	.+2      	; 0x954 <__stack+0x55>
     952:	ba cf       	rjmp	.-140    	; 0x8c8 <vfprintf+0x5e>
     954:	98 2f       	mov	r25, r24
     956:	95 54       	subi	r25, 0x45	; 69
     958:	93 30       	cpi	r25, 0x03	; 3
     95a:	18 f0       	brcs	.+6      	; 0x962 <__stack+0x63>
     95c:	90 52       	subi	r25, 0x20	; 32
     95e:	93 30       	cpi	r25, 0x03	; 3
     960:	28 f4       	brcc	.+10     	; 0x96c <__stack+0x6d>
     962:	0c 5f       	subi	r16, 0xFC	; 252
     964:	1f 4f       	sbci	r17, 0xFF	; 255
     966:	ff e3       	ldi	r31, 0x3F	; 63
     968:	f9 83       	std	Y+1, r31	; 0x01
     96a:	0d c0       	rjmp	.+26     	; 0x986 <__stack+0x87>
     96c:	83 36       	cpi	r24, 0x63	; 99
     96e:	31 f0       	breq	.+12     	; 0x97c <__stack+0x7d>
     970:	83 37       	cpi	r24, 0x73	; 115
     972:	71 f0       	breq	.+28     	; 0x990 <__stack+0x91>
     974:	83 35       	cpi	r24, 0x53	; 83
     976:	09 f0       	breq	.+2      	; 0x97a <__stack+0x7b>
     978:	60 c0       	rjmp	.+192    	; 0xa3a <__stack+0x13b>
     97a:	22 c0       	rjmp	.+68     	; 0x9c0 <__stack+0xc1>
     97c:	f8 01       	movw	r30, r16
     97e:	80 81       	ld	r24, Z
     980:	89 83       	std	Y+1, r24	; 0x01
     982:	0e 5f       	subi	r16, 0xFE	; 254
     984:	1f 4f       	sbci	r17, 0xFF	; 255
     986:	42 01       	movw	r8, r4
     988:	71 e0       	ldi	r23, 0x01	; 1
     98a:	a7 2e       	mov	r10, r23
     98c:	b1 2c       	mov	r11, r1
     98e:	16 c0       	rjmp	.+44     	; 0x9bc <__stack+0xbd>
     990:	62 e0       	ldi	r22, 0x02	; 2
     992:	66 2e       	mov	r6, r22
     994:	71 2c       	mov	r7, r1
     996:	60 0e       	add	r6, r16
     998:	71 1e       	adc	r7, r17
     99a:	f8 01       	movw	r30, r16
     99c:	80 80       	ld	r8, Z
     99e:	91 80       	ldd	r9, Z+1	; 0x01
     9a0:	26 ff       	sbrs	r18, 6
     9a2:	03 c0       	rjmp	.+6      	; 0x9aa <__stack+0xab>
     9a4:	6e 2d       	mov	r22, r14
     9a6:	70 e0       	ldi	r23, 0x00	; 0
     9a8:	02 c0       	rjmp	.+4      	; 0x9ae <__stack+0xaf>
     9aa:	6f ef       	ldi	r22, 0xFF	; 255
     9ac:	7f ef       	ldi	r23, 0xFF	; 255
     9ae:	c4 01       	movw	r24, r8
     9b0:	2c 87       	std	Y+12, r18	; 0x0c
     9b2:	0e 94 f6 08 	call	0x11ec	; 0x11ec <strnlen>
     9b6:	5c 01       	movw	r10, r24
     9b8:	83 01       	movw	r16, r6
     9ba:	2c 85       	ldd	r18, Y+12	; 0x0c
     9bc:	2f 77       	andi	r18, 0x7F	; 127
     9be:	17 c0       	rjmp	.+46     	; 0x9ee <__stack+0xef>
     9c0:	52 e0       	ldi	r21, 0x02	; 2
     9c2:	65 2e       	mov	r6, r21
     9c4:	71 2c       	mov	r7, r1
     9c6:	60 0e       	add	r6, r16
     9c8:	71 1e       	adc	r7, r17
     9ca:	f8 01       	movw	r30, r16
     9cc:	80 80       	ld	r8, Z
     9ce:	91 80       	ldd	r9, Z+1	; 0x01
     9d0:	26 ff       	sbrs	r18, 6
     9d2:	03 c0       	rjmp	.+6      	; 0x9da <__stack+0xdb>
     9d4:	6e 2d       	mov	r22, r14
     9d6:	70 e0       	ldi	r23, 0x00	; 0
     9d8:	02 c0       	rjmp	.+4      	; 0x9de <__stack+0xdf>
     9da:	6f ef       	ldi	r22, 0xFF	; 255
     9dc:	7f ef       	ldi	r23, 0xFF	; 255
     9de:	c4 01       	movw	r24, r8
     9e0:	2c 87       	std	Y+12, r18	; 0x0c
     9e2:	0e 94 eb 08 	call	0x11d6	; 0x11d6 <strnlen_P>
     9e6:	5c 01       	movw	r10, r24
     9e8:	2c 85       	ldd	r18, Y+12	; 0x0c
     9ea:	20 68       	ori	r18, 0x80	; 128
     9ec:	83 01       	movw	r16, r6
     9ee:	23 fd       	sbrc	r18, 3
     9f0:	20 c0       	rjmp	.+64     	; 0xa32 <__stack+0x133>
     9f2:	08 c0       	rjmp	.+16     	; 0xa04 <__stack+0x105>
     9f4:	80 e2       	ldi	r24, 0x20	; 32
     9f6:	90 e0       	ldi	r25, 0x00	; 0
     9f8:	b6 01       	movw	r22, r12
     9fa:	2c 87       	std	Y+12, r18	; 0x0c
     9fc:	0e 94 43 09 	call	0x1286	; 0x1286 <fputc>
     a00:	fa 94       	dec	r15
     a02:	2c 85       	ldd	r18, Y+12	; 0x0c
     a04:	8f 2d       	mov	r24, r15
     a06:	90 e0       	ldi	r25, 0x00	; 0
     a08:	a8 16       	cp	r10, r24
     a0a:	b9 06       	cpc	r11, r25
     a0c:	98 f3       	brcs	.-26     	; 0x9f4 <__stack+0xf5>
     a0e:	11 c0       	rjmp	.+34     	; 0xa32 <__stack+0x133>
     a10:	f4 01       	movw	r30, r8
     a12:	27 fd       	sbrc	r18, 7
     a14:	85 91       	lpm	r24, Z+
     a16:	27 ff       	sbrs	r18, 7
     a18:	81 91       	ld	r24, Z+
     a1a:	4f 01       	movw	r8, r30
     a1c:	90 e0       	ldi	r25, 0x00	; 0
     a1e:	b6 01       	movw	r22, r12
     a20:	2c 87       	std	Y+12, r18	; 0x0c
     a22:	0e 94 43 09 	call	0x1286	; 0x1286 <fputc>
     a26:	2c 85       	ldd	r18, Y+12	; 0x0c
     a28:	f1 10       	cpse	r15, r1
     a2a:	fa 94       	dec	r15
     a2c:	08 94       	sec
     a2e:	a1 08       	sbc	r10, r1
     a30:	b1 08       	sbc	r11, r1
     a32:	a1 14       	cp	r10, r1
     a34:	b1 04       	cpc	r11, r1
     a36:	61 f7       	brne	.-40     	; 0xa10 <__stack+0x111>
     a38:	f1 c0       	rjmp	.+482    	; 0xc1c <__stack+0x31d>
     a3a:	84 36       	cpi	r24, 0x64	; 100
     a3c:	11 f0       	breq	.+4      	; 0xa42 <__stack+0x143>
     a3e:	89 36       	cpi	r24, 0x69	; 105
     a40:	49 f5       	brne	.+82     	; 0xa94 <__stack+0x195>
     a42:	27 ff       	sbrs	r18, 7
     a44:	08 c0       	rjmp	.+16     	; 0xa56 <__stack+0x157>
     a46:	f8 01       	movw	r30, r16
     a48:	60 81       	ld	r22, Z
     a4a:	71 81       	ldd	r23, Z+1	; 0x01
     a4c:	82 81       	ldd	r24, Z+2	; 0x02
     a4e:	93 81       	ldd	r25, Z+3	; 0x03
     a50:	0c 5f       	subi	r16, 0xFC	; 252
     a52:	1f 4f       	sbci	r17, 0xFF	; 255
     a54:	09 c0       	rjmp	.+18     	; 0xa68 <__stack+0x169>
     a56:	f8 01       	movw	r30, r16
     a58:	60 81       	ld	r22, Z
     a5a:	71 81       	ldd	r23, Z+1	; 0x01
     a5c:	88 27       	eor	r24, r24
     a5e:	77 fd       	sbrc	r23, 7
     a60:	80 95       	com	r24
     a62:	98 2f       	mov	r25, r24
     a64:	0e 5f       	subi	r16, 0xFE	; 254
     a66:	1f 4f       	sbci	r17, 0xFF	; 255
     a68:	4f e6       	ldi	r20, 0x6F	; 111
     a6a:	b4 2e       	mov	r11, r20
     a6c:	b2 22       	and	r11, r18
     a6e:	97 ff       	sbrs	r25, 7
     a70:	09 c0       	rjmp	.+18     	; 0xa84 <__stack+0x185>
     a72:	90 95       	com	r25
     a74:	80 95       	com	r24
     a76:	70 95       	com	r23
     a78:	61 95       	neg	r22
     a7a:	7f 4f       	sbci	r23, 0xFF	; 255
     a7c:	8f 4f       	sbci	r24, 0xFF	; 255
     a7e:	9f 4f       	sbci	r25, 0xFF	; 255
     a80:	f0 e8       	ldi	r31, 0x80	; 128
     a82:	bf 2a       	or	r11, r31
     a84:	a2 01       	movw	r20, r4
     a86:	2a e0       	ldi	r18, 0x0A	; 10
     a88:	30 e0       	ldi	r19, 0x00	; 0
     a8a:	0e 94 8a 09 	call	0x1314	; 0x1314 <__ultoa_invert>
     a8e:	78 2e       	mov	r7, r24
     a90:	74 18       	sub	r7, r4
     a92:	45 c0       	rjmp	.+138    	; 0xb1e <__stack+0x21f>
     a94:	85 37       	cpi	r24, 0x75	; 117
     a96:	31 f4       	brne	.+12     	; 0xaa4 <__stack+0x1a5>
     a98:	3f ee       	ldi	r19, 0xEF	; 239
     a9a:	b3 2e       	mov	r11, r19
     a9c:	b2 22       	and	r11, r18
     a9e:	2a e0       	ldi	r18, 0x0A	; 10
     aa0:	30 e0       	ldi	r19, 0x00	; 0
     aa2:	25 c0       	rjmp	.+74     	; 0xaee <__stack+0x1ef>
     aa4:	99 ef       	ldi	r25, 0xF9	; 249
     aa6:	b9 2e       	mov	r11, r25
     aa8:	b2 22       	and	r11, r18
     aaa:	8f 36       	cpi	r24, 0x6F	; 111
     aac:	c1 f0       	breq	.+48     	; 0xade <__stack+0x1df>
     aae:	80 37       	cpi	r24, 0x70	; 112
     ab0:	20 f4       	brcc	.+8      	; 0xaba <__stack+0x1bb>
     ab2:	88 35       	cpi	r24, 0x58	; 88
     ab4:	09 f0       	breq	.+2      	; 0xab8 <__stack+0x1b9>
     ab6:	b5 c0       	rjmp	.+362    	; 0xc22 <__stack+0x323>
     ab8:	0d c0       	rjmp	.+26     	; 0xad4 <__stack+0x1d5>
     aba:	80 37       	cpi	r24, 0x70	; 112
     abc:	21 f0       	breq	.+8      	; 0xac6 <__stack+0x1c7>
     abe:	88 37       	cpi	r24, 0x78	; 120
     ac0:	09 f0       	breq	.+2      	; 0xac4 <__stack+0x1c5>
     ac2:	af c0       	rjmp	.+350    	; 0xc22 <__stack+0x323>
     ac4:	02 c0       	rjmp	.+4      	; 0xaca <__stack+0x1cb>
     ac6:	20 e1       	ldi	r18, 0x10	; 16
     ac8:	b2 2a       	or	r11, r18
     aca:	b4 fe       	sbrs	r11, 4
     acc:	0b c0       	rjmp	.+22     	; 0xae4 <__stack+0x1e5>
     ace:	84 e0       	ldi	r24, 0x04	; 4
     ad0:	b8 2a       	or	r11, r24
     ad2:	08 c0       	rjmp	.+16     	; 0xae4 <__stack+0x1e5>
     ad4:	b4 fe       	sbrs	r11, 4
     ad6:	09 c0       	rjmp	.+18     	; 0xaea <__stack+0x1eb>
     ad8:	e6 e0       	ldi	r30, 0x06	; 6
     ada:	be 2a       	or	r11, r30
     adc:	06 c0       	rjmp	.+12     	; 0xaea <__stack+0x1eb>
     ade:	28 e0       	ldi	r18, 0x08	; 8
     ae0:	30 e0       	ldi	r19, 0x00	; 0
     ae2:	05 c0       	rjmp	.+10     	; 0xaee <__stack+0x1ef>
     ae4:	20 e1       	ldi	r18, 0x10	; 16
     ae6:	30 e0       	ldi	r19, 0x00	; 0
     ae8:	02 c0       	rjmp	.+4      	; 0xaee <__stack+0x1ef>
     aea:	20 e1       	ldi	r18, 0x10	; 16
     aec:	32 e0       	ldi	r19, 0x02	; 2
     aee:	b7 fe       	sbrs	r11, 7
     af0:	08 c0       	rjmp	.+16     	; 0xb02 <__stack+0x203>
     af2:	f8 01       	movw	r30, r16
     af4:	60 81       	ld	r22, Z
     af6:	71 81       	ldd	r23, Z+1	; 0x01
     af8:	82 81       	ldd	r24, Z+2	; 0x02
     afa:	93 81       	ldd	r25, Z+3	; 0x03
     afc:	0c 5f       	subi	r16, 0xFC	; 252
     afe:	1f 4f       	sbci	r17, 0xFF	; 255
     b00:	07 c0       	rjmp	.+14     	; 0xb10 <__stack+0x211>
     b02:	f8 01       	movw	r30, r16
     b04:	60 81       	ld	r22, Z
     b06:	71 81       	ldd	r23, Z+1	; 0x01
     b08:	80 e0       	ldi	r24, 0x00	; 0
     b0a:	90 e0       	ldi	r25, 0x00	; 0
     b0c:	0e 5f       	subi	r16, 0xFE	; 254
     b0e:	1f 4f       	sbci	r17, 0xFF	; 255
     b10:	a2 01       	movw	r20, r4
     b12:	0e 94 8a 09 	call	0x1314	; 0x1314 <__ultoa_invert>
     b16:	78 2e       	mov	r7, r24
     b18:	74 18       	sub	r7, r4
     b1a:	ff e7       	ldi	r31, 0x7F	; 127
     b1c:	bf 22       	and	r11, r31
     b1e:	b6 fe       	sbrs	r11, 6
     b20:	0b c0       	rjmp	.+22     	; 0xb38 <__stack+0x239>
     b22:	2e ef       	ldi	r18, 0xFE	; 254
     b24:	b2 22       	and	r11, r18
     b26:	7e 14       	cp	r7, r14
     b28:	38 f4       	brcc	.+14     	; 0xb38 <__stack+0x239>
     b2a:	b4 fe       	sbrs	r11, 4
     b2c:	07 c0       	rjmp	.+14     	; 0xb3c <__stack+0x23d>
     b2e:	b2 fc       	sbrc	r11, 2
     b30:	05 c0       	rjmp	.+10     	; 0xb3c <__stack+0x23d>
     b32:	8f ee       	ldi	r24, 0xEF	; 239
     b34:	b8 22       	and	r11, r24
     b36:	02 c0       	rjmp	.+4      	; 0xb3c <__stack+0x23d>
     b38:	a7 2c       	mov	r10, r7
     b3a:	01 c0       	rjmp	.+2      	; 0xb3e <__stack+0x23f>
     b3c:	ae 2c       	mov	r10, r14
     b3e:	8b 2d       	mov	r24, r11
     b40:	90 e0       	ldi	r25, 0x00	; 0
     b42:	b4 fe       	sbrs	r11, 4
     b44:	0d c0       	rjmp	.+26     	; 0xb60 <__stack+0x261>
     b46:	fe 01       	movw	r30, r28
     b48:	e7 0d       	add	r30, r7
     b4a:	f1 1d       	adc	r31, r1
     b4c:	20 81       	ld	r18, Z
     b4e:	20 33       	cpi	r18, 0x30	; 48
     b50:	19 f4       	brne	.+6      	; 0xb58 <__stack+0x259>
     b52:	e9 ee       	ldi	r30, 0xE9	; 233
     b54:	be 22       	and	r11, r30
     b56:	09 c0       	rjmp	.+18     	; 0xb6a <__stack+0x26b>
     b58:	a3 94       	inc	r10
     b5a:	b2 fe       	sbrs	r11, 2
     b5c:	06 c0       	rjmp	.+12     	; 0xb6a <__stack+0x26b>
     b5e:	04 c0       	rjmp	.+8      	; 0xb68 <__stack+0x269>
     b60:	86 78       	andi	r24, 0x86	; 134
     b62:	90 70       	andi	r25, 0x00	; 0
     b64:	00 97       	sbiw	r24, 0x00	; 0
     b66:	09 f0       	breq	.+2      	; 0xb6a <__stack+0x26b>
     b68:	a3 94       	inc	r10
     b6a:	8b 2c       	mov	r8, r11
     b6c:	99 24       	eor	r9, r9
     b6e:	b3 fc       	sbrc	r11, 3
     b70:	14 c0       	rjmp	.+40     	; 0xb9a <__stack+0x29b>
     b72:	b0 fe       	sbrs	r11, 0
     b74:	0f c0       	rjmp	.+30     	; 0xb94 <__stack+0x295>
     b76:	af 14       	cp	r10, r15
     b78:	28 f4       	brcc	.+10     	; 0xb84 <__stack+0x285>
     b7a:	e7 2c       	mov	r14, r7
     b7c:	ef 0c       	add	r14, r15
     b7e:	ea 18       	sub	r14, r10
     b80:	af 2c       	mov	r10, r15
     b82:	08 c0       	rjmp	.+16     	; 0xb94 <__stack+0x295>
     b84:	e7 2c       	mov	r14, r7
     b86:	06 c0       	rjmp	.+12     	; 0xb94 <__stack+0x295>
     b88:	80 e2       	ldi	r24, 0x20	; 32
     b8a:	90 e0       	ldi	r25, 0x00	; 0
     b8c:	b6 01       	movw	r22, r12
     b8e:	0e 94 43 09 	call	0x1286	; 0x1286 <fputc>
     b92:	a3 94       	inc	r10
     b94:	af 14       	cp	r10, r15
     b96:	c0 f3       	brcs	.-16     	; 0xb88 <__stack+0x289>
     b98:	04 c0       	rjmp	.+8      	; 0xba2 <__stack+0x2a3>
     b9a:	af 14       	cp	r10, r15
     b9c:	10 f4       	brcc	.+4      	; 0xba2 <__stack+0x2a3>
     b9e:	fa 18       	sub	r15, r10
     ba0:	01 c0       	rjmp	.+2      	; 0xba4 <__stack+0x2a5>
     ba2:	ff 24       	eor	r15, r15
     ba4:	84 fe       	sbrs	r8, 4
     ba6:	0f c0       	rjmp	.+30     	; 0xbc6 <__stack+0x2c7>
     ba8:	80 e3       	ldi	r24, 0x30	; 48
     baa:	90 e0       	ldi	r25, 0x00	; 0
     bac:	b6 01       	movw	r22, r12
     bae:	0e 94 43 09 	call	0x1286	; 0x1286 <fputc>
     bb2:	82 fe       	sbrs	r8, 2
     bb4:	1f c0       	rjmp	.+62     	; 0xbf4 <__stack+0x2f5>
     bb6:	81 fe       	sbrs	r8, 1
     bb8:	03 c0       	rjmp	.+6      	; 0xbc0 <__stack+0x2c1>
     bba:	88 e5       	ldi	r24, 0x58	; 88
     bbc:	90 e0       	ldi	r25, 0x00	; 0
     bbe:	10 c0       	rjmp	.+32     	; 0xbe0 <__stack+0x2e1>
     bc0:	88 e7       	ldi	r24, 0x78	; 120
     bc2:	90 e0       	ldi	r25, 0x00	; 0
     bc4:	0d c0       	rjmp	.+26     	; 0xbe0 <__stack+0x2e1>
     bc6:	c4 01       	movw	r24, r8
     bc8:	86 78       	andi	r24, 0x86	; 134
     bca:	90 70       	andi	r25, 0x00	; 0
     bcc:	00 97       	sbiw	r24, 0x00	; 0
     bce:	91 f0       	breq	.+36     	; 0xbf4 <__stack+0x2f5>
     bd0:	81 fc       	sbrc	r8, 1
     bd2:	02 c0       	rjmp	.+4      	; 0xbd8 <__stack+0x2d9>
     bd4:	80 e2       	ldi	r24, 0x20	; 32
     bd6:	01 c0       	rjmp	.+2      	; 0xbda <__stack+0x2db>
     bd8:	8b e2       	ldi	r24, 0x2B	; 43
     bda:	b7 fc       	sbrc	r11, 7
     bdc:	8d e2       	ldi	r24, 0x2D	; 45
     bde:	90 e0       	ldi	r25, 0x00	; 0
     be0:	b6 01       	movw	r22, r12
     be2:	0e 94 43 09 	call	0x1286	; 0x1286 <fputc>
     be6:	06 c0       	rjmp	.+12     	; 0xbf4 <__stack+0x2f5>
     be8:	80 e3       	ldi	r24, 0x30	; 48
     bea:	90 e0       	ldi	r25, 0x00	; 0
     bec:	b6 01       	movw	r22, r12
     bee:	0e 94 43 09 	call	0x1286	; 0x1286 <fputc>
     bf2:	ea 94       	dec	r14
     bf4:	7e 14       	cp	r7, r14
     bf6:	c0 f3       	brcs	.-16     	; 0xbe8 <__stack+0x2e9>
     bf8:	7a 94       	dec	r7
     bfa:	f2 01       	movw	r30, r4
     bfc:	e7 0d       	add	r30, r7
     bfe:	f1 1d       	adc	r31, r1
     c00:	80 81       	ld	r24, Z
     c02:	90 e0       	ldi	r25, 0x00	; 0
     c04:	b6 01       	movw	r22, r12
     c06:	0e 94 43 09 	call	0x1286	; 0x1286 <fputc>
     c0a:	77 20       	and	r7, r7
     c0c:	a9 f7       	brne	.-22     	; 0xbf8 <__stack+0x2f9>
     c0e:	06 c0       	rjmp	.+12     	; 0xc1c <__stack+0x31d>
     c10:	80 e2       	ldi	r24, 0x20	; 32
     c12:	90 e0       	ldi	r25, 0x00	; 0
     c14:	b6 01       	movw	r22, r12
     c16:	0e 94 43 09 	call	0x1286	; 0x1286 <fputc>
     c1a:	fa 94       	dec	r15
     c1c:	ff 20       	and	r15, r15
     c1e:	c1 f7       	brne	.-16     	; 0xc10 <__stack+0x311>
     c20:	37 ce       	rjmp	.-914    	; 0x890 <vfprintf+0x26>
     c22:	f6 01       	movw	r30, r12
     c24:	26 81       	ldd	r18, Z+6	; 0x06
     c26:	37 81       	ldd	r19, Z+7	; 0x07
     c28:	02 c0       	rjmp	.+4      	; 0xc2e <__stack+0x32f>
     c2a:	2f ef       	ldi	r18, 0xFF	; 255
     c2c:	3f ef       	ldi	r19, 0xFF	; 255
     c2e:	c9 01       	movw	r24, r18
     c30:	2c 96       	adiw	r28, 0x0c	; 12
     c32:	e2 e1       	ldi	r30, 0x12	; 18
     c34:	0c 94 07 0a 	jmp	0x140e	; 0x140e <__epilogue_restores__>

00000c38 <putval>:
     c38:	20 fd       	sbrc	r18, 0
     c3a:	09 c0       	rjmp	.+18     	; 0xc4e <putval+0x16>
     c3c:	fc 01       	movw	r30, r24
     c3e:	23 fd       	sbrc	r18, 3
     c40:	05 c0       	rjmp	.+10     	; 0xc4c <putval+0x14>
     c42:	22 ff       	sbrs	r18, 2
     c44:	02 c0       	rjmp	.+4      	; 0xc4a <putval+0x12>
     c46:	73 83       	std	Z+3, r23	; 0x03
     c48:	62 83       	std	Z+2, r22	; 0x02
     c4a:	51 83       	std	Z+1, r21	; 0x01
     c4c:	40 83       	st	Z, r20
     c4e:	08 95       	ret

00000c50 <mulacc>:
     c50:	ef 92       	push	r14
     c52:	ff 92       	push	r15
     c54:	0f 93       	push	r16
     c56:	1f 93       	push	r17
     c58:	44 fd       	sbrc	r20, 4
     c5a:	10 c0       	rjmp	.+32     	; 0xc7c <mulacc+0x2c>
     c5c:	46 fd       	sbrc	r20, 6
     c5e:	10 c0       	rjmp	.+32     	; 0xc80 <mulacc+0x30>
     c60:	db 01       	movw	r26, r22
     c62:	fc 01       	movw	r30, r24
     c64:	aa 0f       	add	r26, r26
     c66:	bb 1f       	adc	r27, r27
     c68:	ee 1f       	adc	r30, r30
     c6a:	ff 1f       	adc	r31, r31
     c6c:	10 94       	com	r1
     c6e:	d1 f7       	brne	.-12     	; 0xc64 <mulacc+0x14>
     c70:	6a 0f       	add	r22, r26
     c72:	7b 1f       	adc	r23, r27
     c74:	8e 1f       	adc	r24, r30
     c76:	9f 1f       	adc	r25, r31
     c78:	31 e0       	ldi	r19, 0x01	; 1
     c7a:	03 c0       	rjmp	.+6      	; 0xc82 <mulacc+0x32>
     c7c:	33 e0       	ldi	r19, 0x03	; 3
     c7e:	01 c0       	rjmp	.+2      	; 0xc82 <mulacc+0x32>
     c80:	34 e0       	ldi	r19, 0x04	; 4
     c82:	66 0f       	add	r22, r22
     c84:	77 1f       	adc	r23, r23
     c86:	88 1f       	adc	r24, r24
     c88:	99 1f       	adc	r25, r25
     c8a:	31 50       	subi	r19, 0x01	; 1
     c8c:	d1 f7       	brne	.-12     	; 0xc82 <mulacc+0x32>
     c8e:	7b 01       	movw	r14, r22
     c90:	8c 01       	movw	r16, r24
     c92:	e2 0e       	add	r14, r18
     c94:	f1 1c       	adc	r15, r1
     c96:	01 1d       	adc	r16, r1
     c98:	11 1d       	adc	r17, r1
     c9a:	a8 01       	movw	r20, r16
     c9c:	97 01       	movw	r18, r14
     c9e:	b7 01       	movw	r22, r14
     ca0:	ca 01       	movw	r24, r20
     ca2:	1f 91       	pop	r17
     ca4:	0f 91       	pop	r16
     ca6:	ff 90       	pop	r15
     ca8:	ef 90       	pop	r14
     caa:	08 95       	ret

00000cac <skip_spaces>:
     cac:	ef 92       	push	r14
     cae:	ff 92       	push	r15
     cb0:	0f 93       	push	r16
     cb2:	1f 93       	push	r17
     cb4:	cf 93       	push	r28
     cb6:	df 93       	push	r29
     cb8:	8c 01       	movw	r16, r24
     cba:	c8 01       	movw	r24, r16
     cbc:	0e 94 01 09 	call	0x1202	; 0x1202 <fgetc>
     cc0:	ec 01       	movw	r28, r24
     cc2:	97 fd       	sbrc	r25, 7
     cc4:	09 c0       	rjmp	.+18     	; 0xcd8 <skip_spaces+0x2c>
     cc6:	0e 94 d8 08 	call	0x11b0	; 0x11b0 <isspace>
     cca:	00 97       	sbiw	r24, 0x00	; 0
     ccc:	b1 f7       	brne	.-20     	; 0xcba <skip_spaces+0xe>
     cce:	7e 01       	movw	r14, r28
     cd0:	ce 01       	movw	r24, r28
     cd2:	b8 01       	movw	r22, r16
     cd4:	0e 94 6f 09 	call	0x12de	; 0x12de <ungetc>
     cd8:	ce 01       	movw	r24, r28
     cda:	cd b7       	in	r28, 0x3d	; 61
     cdc:	de b7       	in	r29, 0x3e	; 62
     cde:	e6 e0       	ldi	r30, 0x06	; 6
     ce0:	0c 94 13 0a 	jmp	0x1426	; 0x1426 <__epilogue_restores__+0x18>

00000ce4 <conv_int>:
     ce4:	8f 92       	push	r8
     ce6:	9f 92       	push	r9
     ce8:	af 92       	push	r10
     cea:	bf 92       	push	r11
     cec:	df 92       	push	r13
     cee:	ef 92       	push	r14
     cf0:	ff 92       	push	r15
     cf2:	0f 93       	push	r16
     cf4:	1f 93       	push	r17
     cf6:	df 93       	push	r29
     cf8:	cf 93       	push	r28
     cfa:	0f 92       	push	r0
     cfc:	cd b7       	in	r28, 0x3d	; 61
     cfe:	de b7       	in	r29, 0x3e	; 62
     d00:	4c 01       	movw	r8, r24
     d02:	d6 2e       	mov	r13, r22
     d04:	5a 01       	movw	r10, r20
     d06:	12 2f       	mov	r17, r18
     d08:	0e 94 01 09 	call	0x1202	; 0x1202 <fgetc>
     d0c:	8b 32       	cpi	r24, 0x2B	; 43
     d0e:	19 f0       	breq	.+6      	; 0xd16 <conv_int+0x32>
     d10:	8d 32       	cpi	r24, 0x2D	; 45
     d12:	49 f4       	brne	.+18     	; 0xd26 <conv_int+0x42>
     d14:	10 68       	ori	r17, 0x80	; 128
     d16:	da 94       	dec	r13
     d18:	09 f4       	brne	.+2      	; 0xd1c <conv_int+0x38>
     d1a:	6c c0       	rjmp	.+216    	; 0xdf4 <conv_int+0x110>
     d1c:	c4 01       	movw	r24, r8
     d1e:	0e 94 01 09 	call	0x1202	; 0x1202 <fgetc>
     d22:	97 fd       	sbrc	r25, 7
     d24:	67 c0       	rjmp	.+206    	; 0xdf4 <conv_int+0x110>
     d26:	31 2f       	mov	r19, r17
     d28:	3d 7f       	andi	r19, 0xFD	; 253
     d2a:	23 2f       	mov	r18, r19
     d2c:	20 73       	andi	r18, 0x30	; 48
     d2e:	f1 f4       	brne	.+60     	; 0xd6c <conv_int+0x88>
     d30:	80 33       	cpi	r24, 0x30	; 48
     d32:	e1 f4       	brne	.+56     	; 0xd6c <conv_int+0x88>
     d34:	da 94       	dec	r13
     d36:	09 f4       	brne	.+2      	; 0xd3a <conv_int+0x56>
     d38:	48 c0       	rjmp	.+144    	; 0xdca <conv_int+0xe6>
     d3a:	c4 01       	movw	r24, r8
     d3c:	39 83       	std	Y+1, r19	; 0x01
     d3e:	0e 94 01 09 	call	0x1202	; 0x1202 <fgetc>
     d42:	39 81       	ldd	r19, Y+1	; 0x01
     d44:	97 fd       	sbrc	r25, 7
     d46:	41 c0       	rjmp	.+130    	; 0xdca <conv_int+0xe6>
     d48:	32 60       	ori	r19, 0x02	; 2
     d4a:	88 37       	cpi	r24, 0x78	; 120
     d4c:	11 f0       	breq	.+4      	; 0xd52 <conv_int+0x6e>
     d4e:	88 35       	cpi	r24, 0x58	; 88
     d50:	59 f4       	brne	.+22     	; 0xd68 <conv_int+0x84>
     d52:	30 64       	ori	r19, 0x40	; 64
     d54:	da 94       	dec	r13
     d56:	c9 f1       	breq	.+114    	; 0xdca <conv_int+0xe6>
     d58:	c4 01       	movw	r24, r8
     d5a:	39 83       	std	Y+1, r19	; 0x01
     d5c:	0e 94 01 09 	call	0x1202	; 0x1202 <fgetc>
     d60:	39 81       	ldd	r19, Y+1	; 0x01
     d62:	97 ff       	sbrs	r25, 7
     d64:	03 c0       	rjmp	.+6      	; 0xd6c <conv_int+0x88>
     d66:	31 c0       	rjmp	.+98     	; 0xdca <conv_int+0xe6>
     d68:	36 ff       	sbrs	r19, 6
     d6a:	30 61       	ori	r19, 0x10	; 16
     d6c:	ee 24       	eor	r14, r14
     d6e:	ff 24       	eor	r15, r15
     d70:	87 01       	movw	r16, r14
     d72:	28 2f       	mov	r18, r24
     d74:	20 53       	subi	r18, 0x30	; 48
     d76:	28 30       	cpi	r18, 0x08	; 8
     d78:	90 f0       	brcs	.+36     	; 0xd9e <conv_int+0xba>
     d7a:	34 fd       	sbrc	r19, 4
     d7c:	09 c0       	rjmp	.+18     	; 0xd90 <conv_int+0xac>
     d7e:	2a 30       	cpi	r18, 0x0A	; 10
     d80:	70 f0       	brcs	.+28     	; 0xd9e <conv_int+0xba>
     d82:	36 ff       	sbrs	r19, 6
     d84:	05 c0       	rjmp	.+10     	; 0xd90 <conv_int+0xac>
     d86:	2f 7d       	andi	r18, 0xDF	; 223
     d88:	42 2f       	mov	r20, r18
     d8a:	41 51       	subi	r20, 0x11	; 17
     d8c:	46 30       	cpi	r20, 0x06	; 6
     d8e:	30 f0       	brcs	.+12     	; 0xd9c <conv_int+0xb8>
     d90:	b4 01       	movw	r22, r8
     d92:	39 83       	std	Y+1, r19	; 0x01
     d94:	0e 94 6f 09 	call	0x12de	; 0x12de <ungetc>
     d98:	39 81       	ldd	r19, Y+1	; 0x01
     d9a:	14 c0       	rjmp	.+40     	; 0xdc4 <conv_int+0xe0>
     d9c:	27 50       	subi	r18, 0x07	; 7
     d9e:	c8 01       	movw	r24, r16
     da0:	b7 01       	movw	r22, r14
     da2:	43 2f       	mov	r20, r19
     da4:	39 83       	std	Y+1, r19	; 0x01
     da6:	0e 94 28 06 	call	0xc50	; 0xc50 <mulacc>
     daa:	7b 01       	movw	r14, r22
     dac:	8c 01       	movw	r16, r24
     dae:	39 81       	ldd	r19, Y+1	; 0x01
     db0:	32 60       	ori	r19, 0x02	; 2
     db2:	da 94       	dec	r13
     db4:	69 f0       	breq	.+26     	; 0xdd0 <conv_int+0xec>
     db6:	c4 01       	movw	r24, r8
     db8:	39 83       	std	Y+1, r19	; 0x01
     dba:	0e 94 01 09 	call	0x1202	; 0x1202 <fgetc>
     dbe:	39 81       	ldd	r19, Y+1	; 0x01
     dc0:	97 ff       	sbrs	r25, 7
     dc2:	d7 cf       	rjmp	.-82     	; 0xd72 <conv_int+0x8e>
     dc4:	31 fd       	sbrc	r19, 1
     dc6:	04 c0       	rjmp	.+8      	; 0xdd0 <conv_int+0xec>
     dc8:	15 c0       	rjmp	.+42     	; 0xdf4 <conv_int+0x110>
     dca:	ee 24       	eor	r14, r14
     dcc:	ff 24       	eor	r15, r15
     dce:	87 01       	movw	r16, r14
     dd0:	37 ff       	sbrs	r19, 7
     dd2:	08 c0       	rjmp	.+16     	; 0xde4 <conv_int+0x100>
     dd4:	10 95       	com	r17
     dd6:	00 95       	com	r16
     dd8:	f0 94       	com	r15
     dda:	e0 94       	com	r14
     ddc:	e1 1c       	adc	r14, r1
     dde:	f1 1c       	adc	r15, r1
     de0:	01 1d       	adc	r16, r1
     de2:	11 1d       	adc	r17, r1
     de4:	c5 01       	movw	r24, r10
     de6:	b8 01       	movw	r22, r16
     de8:	a7 01       	movw	r20, r14
     dea:	23 2f       	mov	r18, r19
     dec:	0e 94 1c 06 	call	0xc38	; 0xc38 <putval>
     df0:	81 e0       	ldi	r24, 0x01	; 1
     df2:	01 c0       	rjmp	.+2      	; 0xdf6 <conv_int+0x112>
     df4:	80 e0       	ldi	r24, 0x00	; 0
     df6:	0f 90       	pop	r0
     df8:	cf 91       	pop	r28
     dfa:	df 91       	pop	r29
     dfc:	1f 91       	pop	r17
     dfe:	0f 91       	pop	r16
     e00:	ff 90       	pop	r15
     e02:	ef 90       	pop	r14
     e04:	df 90       	pop	r13
     e06:	bf 90       	pop	r11
     e08:	af 90       	pop	r10
     e0a:	9f 90       	pop	r9
     e0c:	8f 90       	pop	r8
     e0e:	08 95       	ret

00000e10 <conv_brk>:
     e10:	a1 e2       	ldi	r26, 0x21	; 33
     e12:	b0 e0       	ldi	r27, 0x00	; 0
     e14:	ee e0       	ldi	r30, 0x0E	; 14
     e16:	f7 e0       	ldi	r31, 0x07	; 7
     e18:	0c 94 ef 09 	jmp	0x13de	; 0x13de <__prologue_saves__+0x8>
     e1c:	6c 01       	movw	r12, r24
     e1e:	8a 01       	movw	r16, r20
     e20:	79 01       	movw	r14, r18
     e22:	9e 01       	movw	r18, r28
     e24:	2f 5f       	subi	r18, 0xFF	; 255
     e26:	3f 4f       	sbci	r19, 0xFF	; 255
     e28:	80 e2       	ldi	r24, 0x20	; 32
     e2a:	f9 01       	movw	r30, r18
     e2c:	11 92       	st	Z+, r1
     e2e:	8a 95       	dec	r24
     e30:	e9 f7       	brne	.-6      	; 0xe2c <conv_brk+0x1c>
     e32:	f6 01       	movw	r30, r12
     e34:	83 80       	ldd	r8, Z+3	; 0x03
     e36:	80 e0       	ldi	r24, 0x00	; 0
     e38:	90 e0       	ldi	r25, 0x00	; 0
     e3a:	bb 24       	eor	r11, r11
     e3c:	99 24       	eor	r9, r9
     e3e:	70 e0       	ldi	r23, 0x00	; 0
     e40:	a1 e0       	ldi	r26, 0x01	; 1
     e42:	b0 e0       	ldi	r27, 0x00	; 0
     e44:	f7 01       	movw	r30, r14
     e46:	83 fc       	sbrc	r8, 3
     e48:	a5 90       	lpm	r10, Z+
     e4a:	83 fe       	sbrs	r8, 3
     e4c:	a1 90       	ld	r10, Z+
     e4e:	7f 01       	movw	r14, r30
     e50:	aa 20       	and	r10, r10
     e52:	09 f4       	brne	.+2      	; 0xe56 <conv_brk+0x46>
     e54:	7f c0       	rjmp	.+254    	; 0xf54 <conv_brk+0x144>
     e56:	fa 2d       	mov	r31, r10
     e58:	fe 35       	cpi	r31, 0x5E	; 94
     e5a:	11 f4       	brne	.+4      	; 0xe60 <conv_brk+0x50>
     e5c:	00 97       	sbiw	r24, 0x00	; 0
     e5e:	51 f1       	breq	.+84     	; 0xeb4 <conv_brk+0xa4>
     e60:	47 2f       	mov	r20, r23
     e62:	50 e0       	ldi	r21, 0x00	; 0
     e64:	48 17       	cp	r20, r24
     e66:	59 07       	cpc	r21, r25
     e68:	44 f4       	brge	.+16     	; 0xe7a <conv_brk+0x6a>
     e6a:	4a 2d       	mov	r20, r10
     e6c:	4d 35       	cpi	r20, 0x5D	; 93
     e6e:	51 f1       	breq	.+84     	; 0xec4 <conv_brk+0xb4>
     e70:	4d 32       	cpi	r20, 0x2D	; 45
     e72:	19 f4       	brne	.+6      	; 0xe7a <conv_brk+0x6a>
     e74:	99 20       	and	r9, r9
     e76:	01 f1       	breq	.+64     	; 0xeb8 <conv_brk+0xa8>
     e78:	03 c0       	rjmp	.+6      	; 0xe80 <conv_brk+0x70>
     e7a:	99 20       	and	r9, r9
     e7c:	09 f4       	brne	.+2      	; 0xe80 <conv_brk+0x70>
     e7e:	ba 2c       	mov	r11, r10
     e80:	4a 2d       	mov	r20, r10
     e82:	46 95       	lsr	r20
     e84:	46 95       	lsr	r20
     e86:	46 95       	lsr	r20
     e88:	f9 01       	movw	r30, r18
     e8a:	e4 0f       	add	r30, r20
     e8c:	f1 1d       	adc	r31, r1
     e8e:	4a 2d       	mov	r20, r10
     e90:	47 70       	andi	r20, 0x07	; 7
     e92:	3d 01       	movw	r6, r26
     e94:	02 c0       	rjmp	.+4      	; 0xe9a <conv_brk+0x8a>
     e96:	66 0c       	add	r6, r6
     e98:	77 1c       	adc	r7, r7
     e9a:	4a 95       	dec	r20
     e9c:	e2 f7       	brpl	.-8      	; 0xe96 <conv_brk+0x86>
     e9e:	90 80       	ld	r9, Z
     ea0:	96 28       	or	r9, r6
     ea2:	90 82       	st	Z, r9
     ea4:	ab 14       	cp	r10, r11
     ea6:	59 f0       	breq	.+22     	; 0xebe <conv_brk+0xae>
     ea8:	ab 14       	cp	r10, r11
     eaa:	10 f4       	brcc	.+4      	; 0xeb0 <conv_brk+0xa0>
     eac:	a3 94       	inc	r10
     eae:	e8 cf       	rjmp	.-48     	; 0xe80 <conv_brk+0x70>
     eb0:	aa 94       	dec	r10
     eb2:	e6 cf       	rjmp	.-52     	; 0xe80 <conv_brk+0x70>
     eb4:	71 e0       	ldi	r23, 0x01	; 1
     eb6:	04 c0       	rjmp	.+8      	; 0xec0 <conv_brk+0xb0>
     eb8:	99 24       	eor	r9, r9
     eba:	93 94       	inc	r9
     ebc:	01 c0       	rjmp	.+2      	; 0xec0 <conv_brk+0xb0>
     ebe:	99 24       	eor	r9, r9
     ec0:	01 96       	adiw	r24, 0x01	; 1
     ec2:	c0 cf       	rjmp	.-128    	; 0xe44 <conv_brk+0x34>
     ec4:	99 20       	and	r9, r9
     ec6:	19 f0       	breq	.+6      	; 0xece <conv_brk+0xbe>
     ec8:	8e 81       	ldd	r24, Y+6	; 0x06
     eca:	80 62       	ori	r24, 0x20	; 32
     ecc:	8e 83       	std	Y+6, r24	; 0x06
     ece:	77 23       	and	r23, r23
     ed0:	51 f0       	breq	.+20     	; 0xee6 <conv_brk+0xd6>
     ed2:	ce 01       	movw	r24, r28
     ed4:	81 96       	adiw	r24, 0x21	; 33
     ed6:	fe 01       	movw	r30, r28
     ed8:	31 96       	adiw	r30, 0x01	; 1
     eda:	20 81       	ld	r18, Z
     edc:	20 95       	com	r18
     ede:	21 93       	st	Z+, r18
     ee0:	e8 17       	cp	r30, r24
     ee2:	f9 07       	cpc	r31, r25
     ee4:	d1 f7       	brne	.-12     	; 0xeda <conv_brk+0xca>
     ee6:	bb 24       	eor	r11, r11
     ee8:	b3 94       	inc	r11
     eea:	4e 01       	movw	r8, r28
     eec:	08 94       	sec
     eee:	81 1c       	adc	r8, r1
     ef0:	91 1c       	adc	r9, r1
     ef2:	01 c0       	rjmp	.+2      	; 0xef6 <conv_brk+0xe6>
     ef4:	bb 24       	eor	r11, r11
     ef6:	c6 01       	movw	r24, r12
     ef8:	69 a3       	std	Y+33, r22	; 0x21
     efa:	0e 94 01 09 	call	0x1202	; 0x1202 <fgetc>
     efe:	69 a1       	ldd	r22, Y+33	; 0x21
     f00:	97 fd       	sbrc	r25, 7
     f02:	20 c0       	rjmp	.+64     	; 0xf44 <conv_brk+0x134>
     f04:	28 2f       	mov	r18, r24
     f06:	26 95       	lsr	r18
     f08:	26 95       	lsr	r18
     f0a:	26 95       	lsr	r18
     f0c:	f4 01       	movw	r30, r8
     f0e:	e2 0f       	add	r30, r18
     f10:	f1 1d       	adc	r31, r1
     f12:	20 81       	ld	r18, Z
     f14:	30 e0       	ldi	r19, 0x00	; 0
     f16:	ac 01       	movw	r20, r24
     f18:	47 70       	andi	r20, 0x07	; 7
     f1a:	50 70       	andi	r21, 0x00	; 0
     f1c:	02 c0       	rjmp	.+4      	; 0xf22 <conv_brk+0x112>
     f1e:	35 95       	asr	r19
     f20:	27 95       	ror	r18
     f22:	4a 95       	dec	r20
     f24:	e2 f7       	brpl	.-8      	; 0xf1e <conv_brk+0x10e>
     f26:	20 fd       	sbrc	r18, 0
     f28:	04 c0       	rjmp	.+8      	; 0xf32 <conv_brk+0x122>
     f2a:	b6 01       	movw	r22, r12
     f2c:	0e 94 6f 09 	call	0x12de	; 0x12de <ungetc>
     f30:	09 c0       	rjmp	.+18     	; 0xf44 <conv_brk+0x134>
     f32:	01 15       	cp	r16, r1
     f34:	11 05       	cpc	r17, r1
     f36:	19 f0       	breq	.+6      	; 0xf3e <conv_brk+0x12e>
     f38:	f8 01       	movw	r30, r16
     f3a:	81 93       	st	Z+, r24
     f3c:	8f 01       	movw	r16, r30
     f3e:	61 50       	subi	r22, 0x01	; 1
     f40:	c9 f6       	brne	.-78     	; 0xef4 <conv_brk+0xe4>
     f42:	02 c0       	rjmp	.+4      	; 0xf48 <conv_brk+0x138>
     f44:	bb 20       	and	r11, r11
     f46:	31 f4       	brne	.+12     	; 0xf54 <conv_brk+0x144>
     f48:	01 15       	cp	r16, r1
     f4a:	11 05       	cpc	r17, r1
     f4c:	29 f0       	breq	.+10     	; 0xf58 <conv_brk+0x148>
     f4e:	f8 01       	movw	r30, r16
     f50:	10 82       	st	Z, r1
     f52:	02 c0       	rjmp	.+4      	; 0xf58 <conv_brk+0x148>
     f54:	ee 24       	eor	r14, r14
     f56:	ff 24       	eor	r15, r15
     f58:	c7 01       	movw	r24, r14
     f5a:	a1 96       	adiw	r28, 0x21	; 33
     f5c:	ee e0       	ldi	r30, 0x0E	; 14
     f5e:	0c 94 0b 0a 	jmp	0x1416	; 0x1416 <__epilogue_restores__+0x8>

00000f62 <vfscanf>:
     f62:	4f 92       	push	r4
     f64:	5f 92       	push	r5
     f66:	6f 92       	push	r6
     f68:	7f 92       	push	r7
     f6a:	9f 92       	push	r9
     f6c:	af 92       	push	r10
     f6e:	bf 92       	push	r11
     f70:	cf 92       	push	r12
     f72:	df 92       	push	r13
     f74:	ef 92       	push	r14
     f76:	ff 92       	push	r15
     f78:	0f 93       	push	r16
     f7a:	1f 93       	push	r17
     f7c:	df 93       	push	r29
     f7e:	cf 93       	push	r28
     f80:	0f 92       	push	r0
     f82:	cd b7       	in	r28, 0x3d	; 61
     f84:	de b7       	in	r29, 0x3e	; 62
     f86:	7c 01       	movw	r14, r24
     f88:	6b 01       	movw	r12, r22
     f8a:	3a 01       	movw	r6, r20
     f8c:	fc 01       	movw	r30, r24
     f8e:	17 82       	std	Z+7, r1	; 0x07
     f90:	16 82       	std	Z+6, r1	; 0x06
     f92:	00 e0       	ldi	r16, 0x00	; 0
     f94:	e9 c0       	rjmp	.+466    	; 0x1168 <vfscanf+0x206>
     f96:	81 2f       	mov	r24, r17
     f98:	90 e0       	ldi	r25, 0x00	; 0
     f9a:	0e 94 d8 08 	call	0x11b0	; 0x11b0 <isspace>
     f9e:	00 97       	sbiw	r24, 0x00	; 0
     fa0:	21 f0       	breq	.+8      	; 0xfaa <vfscanf+0x48>
     fa2:	c7 01       	movw	r24, r14
     fa4:	0e 94 56 06 	call	0xcac	; 0xcac <skip_spaces>
     fa8:	df c0       	rjmp	.+446    	; 0x1168 <vfscanf+0x206>
     faa:	15 32       	cpi	r17, 0x25	; 37
     fac:	41 f4       	brne	.+16     	; 0xfbe <vfscanf+0x5c>
     fae:	f6 01       	movw	r30, r12
     fb0:	a3 fc       	sbrc	r10, 3
     fb2:	35 91       	lpm	r19, Z+
     fb4:	a3 fe       	sbrs	r10, 3
     fb6:	31 91       	ld	r19, Z+
     fb8:	6f 01       	movw	r12, r30
     fba:	35 32       	cpi	r19, 0x25	; 37
     fbc:	61 f4       	brne	.+24     	; 0xfd6 <vfscanf+0x74>
     fbe:	c7 01       	movw	r24, r14
     fc0:	0e 94 01 09 	call	0x1202	; 0x1202 <fgetc>
     fc4:	97 fd       	sbrc	r25, 7
     fc6:	dc c0       	rjmp	.+440    	; 0x1180 <vfscanf+0x21e>
     fc8:	18 17       	cp	r17, r24
     fca:	09 f4       	brne	.+2      	; 0xfce <vfscanf+0x6c>
     fcc:	cd c0       	rjmp	.+410    	; 0x1168 <vfscanf+0x206>
     fce:	b7 01       	movw	r22, r14
     fd0:	0e 94 6f 09 	call	0x12de	; 0x12de <ungetc>
     fd4:	d7 c0       	rjmp	.+430    	; 0x1184 <vfscanf+0x222>
     fd6:	3a 32       	cpi	r19, 0x2A	; 42
     fd8:	39 f4       	brne	.+14     	; 0xfe8 <vfscanf+0x86>
     fda:	a3 fc       	sbrc	r10, 3
     fdc:	35 91       	lpm	r19, Z+
     fde:	a3 fe       	sbrs	r10, 3
     fe0:	31 91       	ld	r19, Z+
     fe2:	6f 01       	movw	r12, r30
     fe4:	11 e0       	ldi	r17, 0x01	; 1
     fe6:	01 c0       	rjmp	.+2      	; 0xfea <vfscanf+0x88>
     fe8:	10 e0       	ldi	r17, 0x00	; 0
     fea:	99 24       	eor	r9, r9
     fec:	0f c0       	rjmp	.+30     	; 0x100c <vfscanf+0xaa>
     fee:	12 60       	ori	r17, 0x02	; 2
     ff0:	69 2d       	mov	r22, r9
     ff2:	70 e0       	ldi	r23, 0x00	; 0
     ff4:	80 e0       	ldi	r24, 0x00	; 0
     ff6:	90 e0       	ldi	r25, 0x00	; 0
     ff8:	40 e2       	ldi	r20, 0x20	; 32
     ffa:	0e 94 28 06 	call	0xc50	; 0xc50 <mulacc>
     ffe:	96 2e       	mov	r9, r22
    1000:	f6 01       	movw	r30, r12
    1002:	a3 fc       	sbrc	r10, 3
    1004:	35 91       	lpm	r19, Z+
    1006:	a3 fe       	sbrs	r10, 3
    1008:	31 91       	ld	r19, Z+
    100a:	6f 01       	movw	r12, r30
    100c:	23 2f       	mov	r18, r19
    100e:	20 53       	subi	r18, 0x30	; 48
    1010:	2a 30       	cpi	r18, 0x0A	; 10
    1012:	68 f3       	brcs	.-38     	; 0xfee <vfscanf+0x8c>
    1014:	11 ff       	sbrs	r17, 1
    1016:	03 c0       	rjmp	.+6      	; 0x101e <vfscanf+0xbc>
    1018:	99 20       	and	r9, r9
    101a:	19 f4       	brne	.+6      	; 0x1022 <vfscanf+0xc0>
    101c:	b3 c0       	rjmp	.+358    	; 0x1184 <vfscanf+0x222>
    101e:	99 24       	eor	r9, r9
    1020:	9a 94       	dec	r9
    1022:	38 36       	cpi	r19, 0x68	; 104
    1024:	19 f0       	breq	.+6      	; 0x102c <vfscanf+0xca>
    1026:	3c 36       	cpi	r19, 0x6C	; 108
    1028:	89 f4       	brne	.+34     	; 0x104c <vfscanf+0xea>
    102a:	09 c0       	rjmp	.+18     	; 0x103e <vfscanf+0xdc>
    102c:	f6 01       	movw	r30, r12
    102e:	a3 fc       	sbrc	r10, 3
    1030:	35 91       	lpm	r19, Z+
    1032:	a3 fe       	sbrs	r10, 3
    1034:	31 91       	ld	r19, Z+
    1036:	6f 01       	movw	r12, r30
    1038:	38 36       	cpi	r19, 0x68	; 104
    103a:	41 f4       	brne	.+16     	; 0x104c <vfscanf+0xea>
    103c:	18 60       	ori	r17, 0x08	; 8
    103e:	14 60       	ori	r17, 0x04	; 4
    1040:	f6 01       	movw	r30, r12
    1042:	a3 fc       	sbrc	r10, 3
    1044:	35 91       	lpm	r19, Z+
    1046:	a3 fe       	sbrs	r10, 3
    1048:	31 91       	ld	r19, Z+
    104a:	6f 01       	movw	r12, r30
    104c:	33 23       	and	r19, r19
    104e:	09 f4       	brne	.+2      	; 0x1052 <vfscanf+0xf0>
    1050:	99 c0       	rjmp	.+306    	; 0x1184 <vfscanf+0x222>
    1052:	8b e8       	ldi	r24, 0x8B	; 139
    1054:	91 e0       	ldi	r25, 0x01	; 1
    1056:	63 2f       	mov	r22, r19
    1058:	70 e0       	ldi	r23, 0x00	; 0
    105a:	39 83       	std	Y+1, r19	; 0x01
    105c:	0e 94 e0 08 	call	0x11c0	; 0x11c0 <strchr_P>
    1060:	39 81       	ldd	r19, Y+1	; 0x01
    1062:	00 97       	sbiw	r24, 0x00	; 0
    1064:	09 f4       	brne	.+2      	; 0x1068 <vfscanf+0x106>
    1066:	8e c0       	rjmp	.+284    	; 0x1184 <vfscanf+0x222>
    1068:	81 2f       	mov	r24, r17
    106a:	10 fd       	sbrc	r17, 0
    106c:	08 c0       	rjmp	.+16     	; 0x107e <vfscanf+0x11c>
    106e:	f3 01       	movw	r30, r6
    1070:	40 80       	ld	r4, Z
    1072:	51 80       	ldd	r5, Z+1	; 0x01
    1074:	42 e0       	ldi	r20, 0x02	; 2
    1076:	50 e0       	ldi	r21, 0x00	; 0
    1078:	64 0e       	add	r6, r20
    107a:	75 1e       	adc	r7, r21
    107c:	02 c0       	rjmp	.+4      	; 0x1082 <vfscanf+0x120>
    107e:	44 24       	eor	r4, r4
    1080:	55 24       	eor	r5, r5
    1082:	3e 36       	cpi	r19, 0x6E	; 110
    1084:	51 f4       	brne	.+20     	; 0x109a <vfscanf+0x138>
    1086:	f7 01       	movw	r30, r14
    1088:	46 81       	ldd	r20, Z+6	; 0x06
    108a:	57 81       	ldd	r21, Z+7	; 0x07
    108c:	60 e0       	ldi	r22, 0x00	; 0
    108e:	70 e0       	ldi	r23, 0x00	; 0
    1090:	c2 01       	movw	r24, r4
    1092:	21 2f       	mov	r18, r17
    1094:	0e 94 1c 06 	call	0xc38	; 0xc38 <putval>
    1098:	67 c0       	rjmp	.+206    	; 0x1168 <vfscanf+0x206>
    109a:	33 36       	cpi	r19, 0x63	; 99
    109c:	91 f4       	brne	.+36     	; 0x10c2 <vfscanf+0x160>
    109e:	81 fd       	sbrc	r24, 1
    10a0:	02 c0       	rjmp	.+4      	; 0x10a6 <vfscanf+0x144>
    10a2:	99 24       	eor	r9, r9
    10a4:	93 94       	inc	r9
    10a6:	c7 01       	movw	r24, r14
    10a8:	0e 94 01 09 	call	0x1202	; 0x1202 <fgetc>
    10ac:	97 fd       	sbrc	r25, 7
    10ae:	68 c0       	rjmp	.+208    	; 0x1180 <vfscanf+0x21e>
    10b0:	41 14       	cp	r4, r1
    10b2:	51 04       	cpc	r5, r1
    10b4:	19 f0       	breq	.+6      	; 0x10bc <vfscanf+0x15a>
    10b6:	f2 01       	movw	r30, r4
    10b8:	81 93       	st	Z+, r24
    10ba:	2f 01       	movw	r4, r30
    10bc:	9a 94       	dec	r9
    10be:	99 f7       	brne	.-26     	; 0x10a6 <vfscanf+0x144>
    10c0:	51 c0       	rjmp	.+162    	; 0x1164 <vfscanf+0x202>
    10c2:	3b 35       	cpi	r19, 0x5B	; 91
    10c4:	59 f4       	brne	.+22     	; 0x10dc <vfscanf+0x17a>
    10c6:	c7 01       	movw	r24, r14
    10c8:	69 2d       	mov	r22, r9
    10ca:	a2 01       	movw	r20, r4
    10cc:	96 01       	movw	r18, r12
    10ce:	0e 94 08 07 	call	0xe10	; 0xe10 <conv_brk>
    10d2:	6c 01       	movw	r12, r24
    10d4:	00 97       	sbiw	r24, 0x00	; 0
    10d6:	09 f0       	breq	.+2      	; 0x10da <vfscanf+0x178>
    10d8:	45 c0       	rjmp	.+138    	; 0x1164 <vfscanf+0x202>
    10da:	3f c0       	rjmp	.+126    	; 0x115a <vfscanf+0x1f8>
    10dc:	c7 01       	movw	r24, r14
    10de:	39 83       	std	Y+1, r19	; 0x01
    10e0:	0e 94 56 06 	call	0xcac	; 0xcac <skip_spaces>
    10e4:	39 81       	ldd	r19, Y+1	; 0x01
    10e6:	97 fd       	sbrc	r25, 7
    10e8:	4b c0       	rjmp	.+150    	; 0x1180 <vfscanf+0x21e>
    10ea:	3f 36       	cpi	r19, 0x6F	; 111
    10ec:	59 f1       	breq	.+86     	; 0x1144 <vfscanf+0x1e2>
    10ee:	30 37       	cpi	r19, 0x70	; 112
    10f0:	28 f4       	brcc	.+10     	; 0x10fc <vfscanf+0x19a>
    10f2:	34 36       	cpi	r19, 0x64	; 100
    10f4:	29 f1       	breq	.+74     	; 0x1140 <vfscanf+0x1de>
    10f6:	39 36       	cpi	r19, 0x69	; 105
    10f8:	39 f5       	brne	.+78     	; 0x1148 <vfscanf+0x1e6>
    10fa:	27 c0       	rjmp	.+78     	; 0x114a <vfscanf+0x1e8>
    10fc:	33 37       	cpi	r19, 0x73	; 115
    10fe:	19 f0       	breq	.+6      	; 0x1106 <vfscanf+0x1a4>
    1100:	35 37       	cpi	r19, 0x75	; 117
    1102:	11 f5       	brne	.+68     	; 0x1148 <vfscanf+0x1e6>
    1104:	1d c0       	rjmp	.+58     	; 0x1140 <vfscanf+0x1de>
    1106:	c7 01       	movw	r24, r14
    1108:	0e 94 01 09 	call	0x1202	; 0x1202 <fgetc>
    110c:	5c 01       	movw	r10, r24
    110e:	97 fd       	sbrc	r25, 7
    1110:	11 c0       	rjmp	.+34     	; 0x1134 <vfscanf+0x1d2>
    1112:	0e 94 d8 08 	call	0x11b0	; 0x11b0 <isspace>
    1116:	00 97       	sbiw	r24, 0x00	; 0
    1118:	29 f0       	breq	.+10     	; 0x1124 <vfscanf+0x1c2>
    111a:	c5 01       	movw	r24, r10
    111c:	b7 01       	movw	r22, r14
    111e:	0e 94 6f 09 	call	0x12de	; 0x12de <ungetc>
    1122:	08 c0       	rjmp	.+16     	; 0x1134 <vfscanf+0x1d2>
    1124:	41 14       	cp	r4, r1
    1126:	51 04       	cpc	r5, r1
    1128:	19 f0       	breq	.+6      	; 0x1130 <vfscanf+0x1ce>
    112a:	f2 01       	movw	r30, r4
    112c:	a1 92       	st	Z+, r10
    112e:	2f 01       	movw	r4, r30
    1130:	9a 94       	dec	r9
    1132:	49 f7       	brne	.-46     	; 0x1106 <vfscanf+0x1a4>
    1134:	41 14       	cp	r4, r1
    1136:	51 04       	cpc	r5, r1
    1138:	a9 f0       	breq	.+42     	; 0x1164 <vfscanf+0x202>
    113a:	f2 01       	movw	r30, r4
    113c:	10 82       	st	Z, r1
    113e:	12 c0       	rjmp	.+36     	; 0x1164 <vfscanf+0x202>
    1140:	10 62       	ori	r17, 0x20	; 32
    1142:	03 c0       	rjmp	.+6      	; 0x114a <vfscanf+0x1e8>
    1144:	10 61       	ori	r17, 0x10	; 16
    1146:	01 c0       	rjmp	.+2      	; 0x114a <vfscanf+0x1e8>
    1148:	10 64       	ori	r17, 0x40	; 64
    114a:	c7 01       	movw	r24, r14
    114c:	69 2d       	mov	r22, r9
    114e:	a2 01       	movw	r20, r4
    1150:	21 2f       	mov	r18, r17
    1152:	0e 94 72 06 	call	0xce4	; 0xce4 <conv_int>
    1156:	88 23       	and	r24, r24
    1158:	29 f4       	brne	.+10     	; 0x1164 <vfscanf+0x202>
    115a:	f7 01       	movw	r30, r14
    115c:	83 81       	ldd	r24, Z+3	; 0x03
    115e:	80 73       	andi	r24, 0x30	; 48
    1160:	79 f4       	brne	.+30     	; 0x1180 <vfscanf+0x21e>
    1162:	10 c0       	rjmp	.+32     	; 0x1184 <vfscanf+0x222>
    1164:	10 ff       	sbrs	r17, 0
    1166:	0f 5f       	subi	r16, 0xFF	; 255
    1168:	f7 01       	movw	r30, r14
    116a:	a3 80       	ldd	r10, Z+3	; 0x03
    116c:	f6 01       	movw	r30, r12
    116e:	a3 fc       	sbrc	r10, 3
    1170:	15 91       	lpm	r17, Z+
    1172:	a3 fe       	sbrs	r10, 3
    1174:	11 91       	ld	r17, Z+
    1176:	6f 01       	movw	r12, r30
    1178:	11 23       	and	r17, r17
    117a:	09 f0       	breq	.+2      	; 0x117e <vfscanf+0x21c>
    117c:	0c cf       	rjmp	.-488    	; 0xf96 <vfscanf+0x34>
    117e:	02 c0       	rjmp	.+4      	; 0x1184 <vfscanf+0x222>
    1180:	00 23       	and	r16, r16
    1182:	11 f0       	breq	.+4      	; 0x1188 <vfscanf+0x226>
    1184:	10 e0       	ldi	r17, 0x00	; 0
    1186:	02 c0       	rjmp	.+4      	; 0x118c <vfscanf+0x22a>
    1188:	0f ef       	ldi	r16, 0xFF	; 255
    118a:	1f ef       	ldi	r17, 0xFF	; 255
    118c:	c8 01       	movw	r24, r16
    118e:	0f 90       	pop	r0
    1190:	cf 91       	pop	r28
    1192:	df 91       	pop	r29
    1194:	1f 91       	pop	r17
    1196:	0f 91       	pop	r16
    1198:	ff 90       	pop	r15
    119a:	ef 90       	pop	r14
    119c:	df 90       	pop	r13
    119e:	cf 90       	pop	r12
    11a0:	bf 90       	pop	r11
    11a2:	af 90       	pop	r10
    11a4:	9f 90       	pop	r9
    11a6:	7f 90       	pop	r7
    11a8:	6f 90       	pop	r6
    11aa:	5f 90       	pop	r5
    11ac:	4f 90       	pop	r4
    11ae:	08 95       	ret

000011b0 <isspace>:
    11b0:	91 11       	cpse	r25, r1
    11b2:	0e c1       	rjmp	.+540    	; 0x13d0 <__ctype_isfalse>
    11b4:	80 32       	cpi	r24, 0x20	; 32
    11b6:	19 f0       	breq	.+6      	; 0x11be <isspace+0xe>
    11b8:	89 50       	subi	r24, 0x09	; 9
    11ba:	85 50       	subi	r24, 0x05	; 5
    11bc:	d0 f7       	brcc	.-12     	; 0x11b2 <isspace+0x2>
    11be:	08 95       	ret

000011c0 <strchr_P>:
    11c0:	fc 01       	movw	r30, r24
    11c2:	05 90       	lpm	r0, Z+
    11c4:	06 16       	cp	r0, r22
    11c6:	21 f0       	breq	.+8      	; 0x11d0 <strchr_P+0x10>
    11c8:	00 20       	and	r0, r0
    11ca:	d9 f7       	brne	.-10     	; 0x11c2 <strchr_P+0x2>
    11cc:	c0 01       	movw	r24, r0
    11ce:	08 95       	ret
    11d0:	31 97       	sbiw	r30, 0x01	; 1
    11d2:	cf 01       	movw	r24, r30
    11d4:	08 95       	ret

000011d6 <strnlen_P>:
    11d6:	fc 01       	movw	r30, r24
    11d8:	05 90       	lpm	r0, Z+
    11da:	61 50       	subi	r22, 0x01	; 1
    11dc:	70 40       	sbci	r23, 0x00	; 0
    11de:	01 10       	cpse	r0, r1
    11e0:	d8 f7       	brcc	.-10     	; 0x11d8 <strnlen_P+0x2>
    11e2:	80 95       	com	r24
    11e4:	90 95       	com	r25
    11e6:	8e 0f       	add	r24, r30
    11e8:	9f 1f       	adc	r25, r31
    11ea:	08 95       	ret

000011ec <strnlen>:
    11ec:	fc 01       	movw	r30, r24
    11ee:	61 50       	subi	r22, 0x01	; 1
    11f0:	70 40       	sbci	r23, 0x00	; 0
    11f2:	01 90       	ld	r0, Z+
    11f4:	01 10       	cpse	r0, r1
    11f6:	d8 f7       	brcc	.-10     	; 0x11ee <strnlen+0x2>
    11f8:	80 95       	com	r24
    11fa:	90 95       	com	r25
    11fc:	8e 0f       	add	r24, r30
    11fe:	9f 1f       	adc	r25, r31
    1200:	08 95       	ret

00001202 <fgetc>:
    1202:	cf 93       	push	r28
    1204:	df 93       	push	r29
    1206:	ec 01       	movw	r28, r24
    1208:	3b 81       	ldd	r19, Y+3	; 0x03
    120a:	30 ff       	sbrs	r19, 0
    120c:	36 c0       	rjmp	.+108    	; 0x127a <fgetc+0x78>
    120e:	36 ff       	sbrs	r19, 6
    1210:	09 c0       	rjmp	.+18     	; 0x1224 <fgetc+0x22>
    1212:	3f 7b       	andi	r19, 0xBF	; 191
    1214:	3b 83       	std	Y+3, r19	; 0x03
    1216:	8e 81       	ldd	r24, Y+6	; 0x06
    1218:	9f 81       	ldd	r25, Y+7	; 0x07
    121a:	01 96       	adiw	r24, 0x01	; 1
    121c:	9f 83       	std	Y+7, r25	; 0x07
    121e:	8e 83       	std	Y+6, r24	; 0x06
    1220:	2a 81       	ldd	r18, Y+2	; 0x02
    1222:	29 c0       	rjmp	.+82     	; 0x1276 <fgetc+0x74>
    1224:	32 ff       	sbrs	r19, 2
    1226:	0f c0       	rjmp	.+30     	; 0x1246 <fgetc+0x44>
    1228:	e8 81       	ld	r30, Y
    122a:	f9 81       	ldd	r31, Y+1	; 0x01
    122c:	80 81       	ld	r24, Z
    122e:	99 27       	eor	r25, r25
    1230:	87 fd       	sbrc	r24, 7
    1232:	90 95       	com	r25
    1234:	00 97       	sbiw	r24, 0x00	; 0
    1236:	19 f4       	brne	.+6      	; 0x123e <fgetc+0x3c>
    1238:	30 62       	ori	r19, 0x20	; 32
    123a:	3b 83       	std	Y+3, r19	; 0x03
    123c:	1e c0       	rjmp	.+60     	; 0x127a <fgetc+0x78>
    123e:	31 96       	adiw	r30, 0x01	; 1
    1240:	f9 83       	std	Y+1, r31	; 0x01
    1242:	e8 83       	st	Y, r30
    1244:	11 c0       	rjmp	.+34     	; 0x1268 <fgetc+0x66>
    1246:	ea 85       	ldd	r30, Y+10	; 0x0a
    1248:	fb 85       	ldd	r31, Y+11	; 0x0b
    124a:	ce 01       	movw	r24, r28
    124c:	09 95       	icall
    124e:	97 ff       	sbrs	r25, 7
    1250:	0b c0       	rjmp	.+22     	; 0x1268 <fgetc+0x66>
    1252:	2b 81       	ldd	r18, Y+3	; 0x03
    1254:	3f ef       	ldi	r19, 0xFF	; 255
    1256:	8f 3f       	cpi	r24, 0xFF	; 255
    1258:	93 07       	cpc	r25, r19
    125a:	11 f4       	brne	.+4      	; 0x1260 <fgetc+0x5e>
    125c:	80 e1       	ldi	r24, 0x10	; 16
    125e:	01 c0       	rjmp	.+2      	; 0x1262 <fgetc+0x60>
    1260:	80 e2       	ldi	r24, 0x20	; 32
    1262:	82 2b       	or	r24, r18
    1264:	8b 83       	std	Y+3, r24	; 0x03
    1266:	09 c0       	rjmp	.+18     	; 0x127a <fgetc+0x78>
    1268:	2e 81       	ldd	r18, Y+6	; 0x06
    126a:	3f 81       	ldd	r19, Y+7	; 0x07
    126c:	2f 5f       	subi	r18, 0xFF	; 255
    126e:	3f 4f       	sbci	r19, 0xFF	; 255
    1270:	3f 83       	std	Y+7, r19	; 0x07
    1272:	2e 83       	std	Y+6, r18	; 0x06
    1274:	28 2f       	mov	r18, r24
    1276:	30 e0       	ldi	r19, 0x00	; 0
    1278:	02 c0       	rjmp	.+4      	; 0x127e <fgetc+0x7c>
    127a:	2f ef       	ldi	r18, 0xFF	; 255
    127c:	3f ef       	ldi	r19, 0xFF	; 255
    127e:	c9 01       	movw	r24, r18
    1280:	df 91       	pop	r29
    1282:	cf 91       	pop	r28
    1284:	08 95       	ret

00001286 <fputc>:
    1286:	0f 93       	push	r16
    1288:	1f 93       	push	r17
    128a:	cf 93       	push	r28
    128c:	df 93       	push	r29
    128e:	8c 01       	movw	r16, r24
    1290:	eb 01       	movw	r28, r22
    1292:	8b 81       	ldd	r24, Y+3	; 0x03
    1294:	81 ff       	sbrs	r24, 1
    1296:	1b c0       	rjmp	.+54     	; 0x12ce <fputc+0x48>
    1298:	82 ff       	sbrs	r24, 2
    129a:	0d c0       	rjmp	.+26     	; 0x12b6 <fputc+0x30>
    129c:	2e 81       	ldd	r18, Y+6	; 0x06
    129e:	3f 81       	ldd	r19, Y+7	; 0x07
    12a0:	8c 81       	ldd	r24, Y+4	; 0x04
    12a2:	9d 81       	ldd	r25, Y+5	; 0x05
    12a4:	28 17       	cp	r18, r24
    12a6:	39 07       	cpc	r19, r25
    12a8:	64 f4       	brge	.+24     	; 0x12c2 <fputc+0x3c>
    12aa:	e8 81       	ld	r30, Y
    12ac:	f9 81       	ldd	r31, Y+1	; 0x01
    12ae:	01 93       	st	Z+, r16
    12b0:	f9 83       	std	Y+1, r31	; 0x01
    12b2:	e8 83       	st	Y, r30
    12b4:	06 c0       	rjmp	.+12     	; 0x12c2 <fputc+0x3c>
    12b6:	e8 85       	ldd	r30, Y+8	; 0x08
    12b8:	f9 85       	ldd	r31, Y+9	; 0x09
    12ba:	80 2f       	mov	r24, r16
    12bc:	09 95       	icall
    12be:	00 97       	sbiw	r24, 0x00	; 0
    12c0:	31 f4       	brne	.+12     	; 0x12ce <fputc+0x48>
    12c2:	8e 81       	ldd	r24, Y+6	; 0x06
    12c4:	9f 81       	ldd	r25, Y+7	; 0x07
    12c6:	01 96       	adiw	r24, 0x01	; 1
    12c8:	9f 83       	std	Y+7, r25	; 0x07
    12ca:	8e 83       	std	Y+6, r24	; 0x06
    12cc:	02 c0       	rjmp	.+4      	; 0x12d2 <fputc+0x4c>
    12ce:	0f ef       	ldi	r16, 0xFF	; 255
    12d0:	1f ef       	ldi	r17, 0xFF	; 255
    12d2:	c8 01       	movw	r24, r16
    12d4:	df 91       	pop	r29
    12d6:	cf 91       	pop	r28
    12d8:	1f 91       	pop	r17
    12da:	0f 91       	pop	r16
    12dc:	08 95       	ret

000012de <ungetc>:
    12de:	fb 01       	movw	r30, r22
    12e0:	23 81       	ldd	r18, Z+3	; 0x03
    12e2:	20 ff       	sbrs	r18, 0
    12e4:	13 c0       	rjmp	.+38     	; 0x130c <ungetc+0x2e>
    12e6:	26 fd       	sbrc	r18, 6
    12e8:	11 c0       	rjmp	.+34     	; 0x130c <ungetc+0x2e>
    12ea:	3f ef       	ldi	r19, 0xFF	; 255
    12ec:	8f 3f       	cpi	r24, 0xFF	; 255
    12ee:	93 07       	cpc	r25, r19
    12f0:	69 f0       	breq	.+26     	; 0x130c <ungetc+0x2e>
    12f2:	82 83       	std	Z+2, r24	; 0x02
    12f4:	20 64       	ori	r18, 0x40	; 64
    12f6:	2f 7d       	andi	r18, 0xDF	; 223
    12f8:	23 83       	std	Z+3, r18	; 0x03
    12fa:	26 81       	ldd	r18, Z+6	; 0x06
    12fc:	37 81       	ldd	r19, Z+7	; 0x07
    12fe:	21 50       	subi	r18, 0x01	; 1
    1300:	30 40       	sbci	r19, 0x00	; 0
    1302:	37 83       	std	Z+7, r19	; 0x07
    1304:	26 83       	std	Z+6, r18	; 0x06
    1306:	28 2f       	mov	r18, r24
    1308:	30 e0       	ldi	r19, 0x00	; 0
    130a:	02 c0       	rjmp	.+4      	; 0x1310 <ungetc+0x32>
    130c:	2f ef       	ldi	r18, 0xFF	; 255
    130e:	3f ef       	ldi	r19, 0xFF	; 255
    1310:	c9 01       	movw	r24, r18
    1312:	08 95       	ret

00001314 <__ultoa_invert>:
    1314:	fa 01       	movw	r30, r20
    1316:	aa 27       	eor	r26, r26
    1318:	28 30       	cpi	r18, 0x08	; 8
    131a:	51 f1       	breq	.+84     	; 0x1370 <__ultoa_invert+0x5c>
    131c:	20 31       	cpi	r18, 0x10	; 16
    131e:	81 f1       	breq	.+96     	; 0x1380 <__ultoa_invert+0x6c>
    1320:	e8 94       	clt
    1322:	6f 93       	push	r22
    1324:	6e 7f       	andi	r22, 0xFE	; 254
    1326:	6e 5f       	subi	r22, 0xFE	; 254
    1328:	7f 4f       	sbci	r23, 0xFF	; 255
    132a:	8f 4f       	sbci	r24, 0xFF	; 255
    132c:	9f 4f       	sbci	r25, 0xFF	; 255
    132e:	af 4f       	sbci	r26, 0xFF	; 255
    1330:	b1 e0       	ldi	r27, 0x01	; 1
    1332:	3e d0       	rcall	.+124    	; 0x13b0 <__ultoa_invert+0x9c>
    1334:	b4 e0       	ldi	r27, 0x04	; 4
    1336:	3c d0       	rcall	.+120    	; 0x13b0 <__ultoa_invert+0x9c>
    1338:	67 0f       	add	r22, r23
    133a:	78 1f       	adc	r23, r24
    133c:	89 1f       	adc	r24, r25
    133e:	9a 1f       	adc	r25, r26
    1340:	a1 1d       	adc	r26, r1
    1342:	68 0f       	add	r22, r24
    1344:	79 1f       	adc	r23, r25
    1346:	8a 1f       	adc	r24, r26
    1348:	91 1d       	adc	r25, r1
    134a:	a1 1d       	adc	r26, r1
    134c:	6a 0f       	add	r22, r26
    134e:	71 1d       	adc	r23, r1
    1350:	81 1d       	adc	r24, r1
    1352:	91 1d       	adc	r25, r1
    1354:	a1 1d       	adc	r26, r1
    1356:	20 d0       	rcall	.+64     	; 0x1398 <__ultoa_invert+0x84>
    1358:	09 f4       	brne	.+2      	; 0x135c <__ultoa_invert+0x48>
    135a:	68 94       	set
    135c:	3f 91       	pop	r19
    135e:	2a e0       	ldi	r18, 0x0A	; 10
    1360:	26 9f       	mul	r18, r22
    1362:	11 24       	eor	r1, r1
    1364:	30 19       	sub	r19, r0
    1366:	30 5d       	subi	r19, 0xD0	; 208
    1368:	31 93       	st	Z+, r19
    136a:	de f6       	brtc	.-74     	; 0x1322 <__ultoa_invert+0xe>
    136c:	cf 01       	movw	r24, r30
    136e:	08 95       	ret
    1370:	46 2f       	mov	r20, r22
    1372:	47 70       	andi	r20, 0x07	; 7
    1374:	40 5d       	subi	r20, 0xD0	; 208
    1376:	41 93       	st	Z+, r20
    1378:	b3 e0       	ldi	r27, 0x03	; 3
    137a:	0f d0       	rcall	.+30     	; 0x139a <__ultoa_invert+0x86>
    137c:	c9 f7       	brne	.-14     	; 0x1370 <__ultoa_invert+0x5c>
    137e:	f6 cf       	rjmp	.-20     	; 0x136c <__ultoa_invert+0x58>
    1380:	46 2f       	mov	r20, r22
    1382:	4f 70       	andi	r20, 0x0F	; 15
    1384:	40 5d       	subi	r20, 0xD0	; 208
    1386:	4a 33       	cpi	r20, 0x3A	; 58
    1388:	18 f0       	brcs	.+6      	; 0x1390 <__ultoa_invert+0x7c>
    138a:	49 5d       	subi	r20, 0xD9	; 217
    138c:	31 fd       	sbrc	r19, 1
    138e:	40 52       	subi	r20, 0x20	; 32
    1390:	41 93       	st	Z+, r20
    1392:	02 d0       	rcall	.+4      	; 0x1398 <__ultoa_invert+0x84>
    1394:	a9 f7       	brne	.-22     	; 0x1380 <__ultoa_invert+0x6c>
    1396:	ea cf       	rjmp	.-44     	; 0x136c <__ultoa_invert+0x58>
    1398:	b4 e0       	ldi	r27, 0x04	; 4
    139a:	a6 95       	lsr	r26
    139c:	97 95       	ror	r25
    139e:	87 95       	ror	r24
    13a0:	77 95       	ror	r23
    13a2:	67 95       	ror	r22
    13a4:	ba 95       	dec	r27
    13a6:	c9 f7       	brne	.-14     	; 0x139a <__ultoa_invert+0x86>
    13a8:	00 97       	sbiw	r24, 0x00	; 0
    13aa:	61 05       	cpc	r22, r1
    13ac:	71 05       	cpc	r23, r1
    13ae:	08 95       	ret
    13b0:	9b 01       	movw	r18, r22
    13b2:	ac 01       	movw	r20, r24
    13b4:	0a 2e       	mov	r0, r26
    13b6:	06 94       	lsr	r0
    13b8:	57 95       	ror	r21
    13ba:	47 95       	ror	r20
    13bc:	37 95       	ror	r19
    13be:	27 95       	ror	r18
    13c0:	ba 95       	dec	r27
    13c2:	c9 f7       	brne	.-14     	; 0x13b6 <__ultoa_invert+0xa2>
    13c4:	62 0f       	add	r22, r18
    13c6:	73 1f       	adc	r23, r19
    13c8:	84 1f       	adc	r24, r20
    13ca:	95 1f       	adc	r25, r21
    13cc:	a0 1d       	adc	r26, r0
    13ce:	08 95       	ret

000013d0 <__ctype_isfalse>:
    13d0:	99 27       	eor	r25, r25
    13d2:	88 27       	eor	r24, r24

000013d4 <__ctype_istrue>:
    13d4:	08 95       	ret

000013d6 <__prologue_saves__>:
    13d6:	2f 92       	push	r2
    13d8:	3f 92       	push	r3
    13da:	4f 92       	push	r4
    13dc:	5f 92       	push	r5
    13de:	6f 92       	push	r6
    13e0:	7f 92       	push	r7
    13e2:	8f 92       	push	r8
    13e4:	9f 92       	push	r9
    13e6:	af 92       	push	r10
    13e8:	bf 92       	push	r11
    13ea:	cf 92       	push	r12
    13ec:	df 92       	push	r13
    13ee:	ef 92       	push	r14
    13f0:	ff 92       	push	r15
    13f2:	0f 93       	push	r16
    13f4:	1f 93       	push	r17
    13f6:	cf 93       	push	r28
    13f8:	df 93       	push	r29
    13fa:	cd b7       	in	r28, 0x3d	; 61
    13fc:	de b7       	in	r29, 0x3e	; 62
    13fe:	ca 1b       	sub	r28, r26
    1400:	db 0b       	sbc	r29, r27
    1402:	0f b6       	in	r0, 0x3f	; 63
    1404:	f8 94       	cli
    1406:	de bf       	out	0x3e, r29	; 62
    1408:	0f be       	out	0x3f, r0	; 63
    140a:	cd bf       	out	0x3d, r28	; 61
    140c:	09 94       	ijmp

0000140e <__epilogue_restores__>:
    140e:	2a 88       	ldd	r2, Y+18	; 0x12
    1410:	39 88       	ldd	r3, Y+17	; 0x11
    1412:	48 88       	ldd	r4, Y+16	; 0x10
    1414:	5f 84       	ldd	r5, Y+15	; 0x0f
    1416:	6e 84       	ldd	r6, Y+14	; 0x0e
    1418:	7d 84       	ldd	r7, Y+13	; 0x0d
    141a:	8c 84       	ldd	r8, Y+12	; 0x0c
    141c:	9b 84       	ldd	r9, Y+11	; 0x0b
    141e:	aa 84       	ldd	r10, Y+10	; 0x0a
    1420:	b9 84       	ldd	r11, Y+9	; 0x09
    1422:	c8 84       	ldd	r12, Y+8	; 0x08
    1424:	df 80       	ldd	r13, Y+7	; 0x07
    1426:	ee 80       	ldd	r14, Y+6	; 0x06
    1428:	fd 80       	ldd	r15, Y+5	; 0x05
    142a:	0c 81       	ldd	r16, Y+4	; 0x04
    142c:	1b 81       	ldd	r17, Y+3	; 0x03
    142e:	aa 81       	ldd	r26, Y+2	; 0x02
    1430:	b9 81       	ldd	r27, Y+1	; 0x01
    1432:	ce 0f       	add	r28, r30
    1434:	d1 1d       	adc	r29, r1
    1436:	0f b6       	in	r0, 0x3f	; 63
    1438:	f8 94       	cli
    143a:	de bf       	out	0x3e, r29	; 62
    143c:	0f be       	out	0x3f, r0	; 63
    143e:	cd bf       	out	0x3d, r28	; 61
    1440:	ed 01       	movw	r28, r26
    1442:	08 95       	ret

00001444 <_exit>:
    1444:	f8 94       	cli

00001446 <__stop_program>:
    1446:	ff cf       	rjmp	.-2      	; 0x1446 <__stop_program>
